
/home/lxf/neuopenrtplatform/am-kernels/tests/cpu-tests/build/hello-str-riscv64-nemu.elf:     file format elf64-littleriscv


Disassembly of section .text:

0000000080000000 <_start>:
    80000000:	00000413          	li	s0,0
    80000004:	00009117          	auipc	sp,0x9
    80000008:	ffc10113          	addi	sp,sp,-4 # 80009000 <_end>
    8000000c:	100000ef          	jal	ra,8000010c <_trm_init>

0000000080000010 <check>:
    80000010:	00050463          	beqz	a0,80000018 <check+0x8>
    80000014:	00008067          	ret
    80000018:	ff010113          	addi	sp,sp,-16
    8000001c:	00100513          	li	a0,1
    80000020:	00113423          	sd	ra,8(sp)
    80000024:	0dc000ef          	jal	ra,80000100 <halt>

0000000080000028 <main>:
    80000028:	ff010113          	addi	sp,sp,-16
    8000002c:	00001617          	auipc	a2,0x1
    80000030:	c3c60613          	addi	a2,a2,-964 # 80000c68 <_etext+0x4>
    80000034:	00001597          	auipc	a1,0x1
    80000038:	c4458593          	addi	a1,a1,-956 # 80000c78 <_etext+0x14>
    8000003c:	00001517          	auipc	a0,0x1
    80000040:	dc450513          	addi	a0,a0,-572 # 80000e00 <buf>
    80000044:	00113423          	sd	ra,8(sp)
    80000048:	351000ef          	jal	ra,80000b98 <sprintf>
    8000004c:	00001597          	auipc	a1,0x1
    80000050:	c1c58593          	addi	a1,a1,-996 # 80000c68 <_etext+0x4>
    80000054:	00001517          	auipc	a0,0x1
    80000058:	dac50513          	addi	a0,a0,-596 # 80000e00 <buf>
    8000005c:	3a1000ef          	jal	ra,80000bfc <strcmp>
    80000060:	00153513          	seqz	a0,a0
    80000064:	fadff0ef          	jal	ra,80000010 <check>
    80000068:	00200713          	li	a4,2
    8000006c:	00100693          	li	a3,1
    80000070:	00100613          	li	a2,1
    80000074:	00001597          	auipc	a1,0x1
    80000078:	c0c58593          	addi	a1,a1,-1012 # 80000c80 <_etext+0x1c>
    8000007c:	00001517          	auipc	a0,0x1
    80000080:	d8450513          	addi	a0,a0,-636 # 80000e00 <buf>
    80000084:	315000ef          	jal	ra,80000b98 <sprintf>
    80000088:	00001597          	auipc	a1,0x1
    8000008c:	c0858593          	addi	a1,a1,-1016 # 80000c90 <_etext+0x2c>
    80000090:	00001517          	auipc	a0,0x1
    80000094:	d7050513          	addi	a0,a0,-656 # 80000e00 <buf>
    80000098:	365000ef          	jal	ra,80000bfc <strcmp>
    8000009c:	00153513          	seqz	a0,a0
    800000a0:	f71ff0ef          	jal	ra,80000010 <check>
    800000a4:	00c00713          	li	a4,12
    800000a8:	00a00693          	li	a3,10
    800000ac:	00200613          	li	a2,2
    800000b0:	00001597          	auipc	a1,0x1
    800000b4:	bd058593          	addi	a1,a1,-1072 # 80000c80 <_etext+0x1c>
    800000b8:	00001517          	auipc	a0,0x1
    800000bc:	d4850513          	addi	a0,a0,-696 # 80000e00 <buf>
    800000c0:	2d9000ef          	jal	ra,80000b98 <sprintf>
    800000c4:	00001597          	auipc	a1,0x1
    800000c8:	bdc58593          	addi	a1,a1,-1060 # 80000ca0 <_etext+0x3c>
    800000cc:	00001517          	auipc	a0,0x1
    800000d0:	d3450513          	addi	a0,a0,-716 # 80000e00 <buf>
    800000d4:	329000ef          	jal	ra,80000bfc <strcmp>
    800000d8:	00153513          	seqz	a0,a0
    800000dc:	f35ff0ef          	jal	ra,80000010 <check>
    800000e0:	00813083          	ld	ra,8(sp)
    800000e4:	00000513          	li	a0,0
    800000e8:	01010113          	addi	sp,sp,16
    800000ec:	00008067          	ret

00000000800000f0 <putch>:
    800000f0:	00500793          	li	a5,5
    800000f4:	01d79793          	slli	a5,a5,0x1d
    800000f8:	3ea78c23          	sb	a0,1016(a5)
    800000fc:	00008067          	ret

0000000080000100 <halt>:
    80000100:	00050513          	mv	a0,a0
    80000104:	00100073          	ebreak
    80000108:	0000006f          	j	80000108 <halt+0x8>

000000008000010c <_trm_init>:
    8000010c:	ff010113          	addi	sp,sp,-16
    80000110:	00001517          	auipc	a0,0x1
    80000114:	ce050513          	addi	a0,a0,-800 # 80000df0 <mainargs>
    80000118:	00113423          	sd	ra,8(sp)
    8000011c:	f0dff0ef          	jal	ra,80000028 <main>
    80000120:	00050513          	mv	a0,a0
    80000124:	00100073          	ebreak
    80000128:	0000006f          	j	80000128 <_trm_init+0x1c>

000000008000012c <vsnprintf>:
    8000012c:	f7010113          	addi	sp,sp,-144
    80000130:	08113423          	sd	ra,136(sp)
    80000134:	08813023          	sd	s0,128(sp)
    80000138:	06913c23          	sd	s1,120(sp)
    8000013c:	07213823          	sd	s2,112(sp)
    80000140:	07313423          	sd	s3,104(sp)
    80000144:	07413023          	sd	s4,96(sp)
    80000148:	05513c23          	sd	s5,88(sp)
    8000014c:	05613823          	sd	s6,80(sp)
    80000150:	05713423          	sd	s7,72(sp)
    80000154:	05813023          	sd	s8,64(sp)
    80000158:	03913c23          	sd	s9,56(sp)
    8000015c:	03a13823          	sd	s10,48(sp)
    80000160:	03b13423          	sd	s11,40(sp)
    80000164:	50060263          	beqz	a2,80000668 <vsnprintf+0x53c>
    80000168:	00064703          	lbu	a4,0(a2)
    8000016c:	00060493          	mv	s1,a2
    80000170:	00050993          	mv	s3,a0
    80000174:	00058913          	mv	s2,a1
    80000178:	00000a13          	li	s4,0
    8000017c:	00100413          	li	s0,1
    80000180:	04070c63          	beqz	a4,800001d8 <vsnprintf+0xac>
    80000184:	00010b93          	mv	s7,sp
    80000188:	00100c13          	li	s8,1
    8000018c:	00068c93          	mv	s9,a3
    80000190:	00001a97          	auipc	s5,0x1
    80000194:	baca8a93          	addi	s5,s5,-1108 # 80000d3c <_etext+0xd8>
    80000198:	00001b17          	auipc	s6,0x1
    8000019c:	c60b3b03          	ld	s6,-928(s6) # 80000df8 <mainargs+0x8>
    800001a0:	417c0c3b          	subw	s8,s8,s7
    800001a4:	00100793          	li	a5,1
    800001a8:	00148613          	addi	a2,s1,1
    800001ac:	0727fa63          	bgeu	a5,s2,80000220 <vsnprintf+0xf4>
    800001b0:	02500793          	li	a5,37
    800001b4:	08f70663          	beq	a4,a5,80000240 <vsnprintf+0x114>
    800001b8:	001a0a1b          	addiw	s4,s4,1
    800001bc:	3e040263          	beqz	s0,800005a0 <vsnprintf+0x474>
    800001c0:	00e98023          	sb	a4,0(s3)
    800001c4:	0014c703          	lbu	a4,1(s1)
    800001c8:	fff90913          	addi	s2,s2,-1
    800001cc:	00060493          	mv	s1,a2
    800001d0:	00198993          	addi	s3,s3,1
    800001d4:	fc0718e3          	bnez	a4,800001a4 <vsnprintf+0x78>
    800001d8:	00090463          	beqz	s2,800001e0 <vsnprintf+0xb4>
    800001dc:	00098023          	sb	zero,0(s3)
    800001e0:	08813083          	ld	ra,136(sp)
    800001e4:	08013403          	ld	s0,128(sp)
    800001e8:	07813483          	ld	s1,120(sp)
    800001ec:	07013903          	ld	s2,112(sp)
    800001f0:	06813983          	ld	s3,104(sp)
    800001f4:	05813a83          	ld	s5,88(sp)
    800001f8:	05013b03          	ld	s6,80(sp)
    800001fc:	04813b83          	ld	s7,72(sp)
    80000200:	04013c03          	ld	s8,64(sp)
    80000204:	03813c83          	ld	s9,56(sp)
    80000208:	03013d03          	ld	s10,48(sp)
    8000020c:	02813d83          	ld	s11,40(sp)
    80000210:	000a0513          	mv	a0,s4
    80000214:	06013a03          	ld	s4,96(sp)
    80000218:	09010113          	addi	sp,sp,144
    8000021c:	00008067          	ret
    80000220:	02500793          	li	a5,37
    80000224:	34f70e63          	beq	a4,a5,80000580 <vsnprintf+0x454>
    80000228:	0014c703          	lbu	a4,1(s1)
    8000022c:	001a0a1b          	addiw	s4,s4,1
    80000230:	00060493          	mv	s1,a2
    80000234:	00000413          	li	s0,0
    80000238:	f60716e3          	bnez	a4,800001a4 <vsnprintf+0x78>
    8000023c:	f9dff06f          	j	800001d8 <vsnprintf+0xac>
    80000240:	0014c783          	lbu	a5,1(s1)
    80000244:	f8078ce3          	beqz	a5,800001dc <vsnprintf+0xb0>
    80000248:	36e78463          	beq	a5,a4,800005b0 <vsnprintf+0x484>
    8000024c:	f9d7879b          	addiw	a5,a5,-99
    80000250:	0ff7f793          	zext.b	a5,a5
    80000254:	01500713          	li	a4,21
    80000258:	06f76663          	bltu	a4,a5,800002c4 <vsnprintf+0x198>
    8000025c:	00279793          	slli	a5,a5,0x2
    80000260:	015787b3          	add	a5,a5,s5
    80000264:	0007a783          	lw	a5,0(a5)
    80000268:	015787b3          	add	a5,a5,s5
    8000026c:	00078067          	jr	a5
    80000270:	00bc073b          	addw	a4,s8,a1
    80000274:	02070693          	addi	a3,a4,32
    80000278:	002686b3          	add	a3,a3,sp
    8000027c:	0308889b          	addiw	a7,a7,48
    80000280:	ff168023          	sb	a7,-32(a3)
    80000284:	0017079b          	addiw	a5,a4,1
    80000288:	01900693          	li	a3,25
    8000028c:	3cd78663          	beq	a5,a3,80000658 <vsnprintf+0x52c>
    80000290:	00fa0a3b          	addw	s4,s4,a5
    80000294:	00e607b3          	add	a5,a2,a4
    80000298:	fff10713          	addi	a4,sp,-1
    8000029c:	02040063          	beqz	s0,800002bc <vsnprintf+0x190>
    800002a0:	0007c683          	lbu	a3,0(a5)
    800002a4:	fff90913          	addi	s2,s2,-1
    800002a8:	00293413          	sltiu	s0,s2,2
    800002ac:	00144413          	xori	s0,s0,1
    800002b0:	00d98023          	sb	a3,0(s3)
    800002b4:	0ff47413          	zext.b	s0,s0
    800002b8:	00198993          	addi	s3,s3,1
    800002bc:	fff78793          	addi	a5,a5,-1
    800002c0:	fce79ee3          	bne	a5,a4,8000029c <vsnprintf+0x170>
    800002c4:	0024c703          	lbu	a4,2(s1)
    800002c8:	00248493          	addi	s1,s1,2
    800002cc:	ec071ce3          	bnez	a4,800001a4 <vsnprintf+0x78>
    800002d0:	f09ff06f          	j	800001d8 <vsnprintf+0xac>
    800002d4:	000cb303          	ld	t1,0(s9)
    800002d8:	00013023          	sd	zero,0(sp)
    800002dc:	008c8c93          	addi	s9,s9,8
    800002e0:	00013423          	sd	zero,8(sp)
    800002e4:	00011823          	sh	zero,16(sp)
    800002e8:	00010923          	sb	zero,18(sp)
    800002ec:	000b8693          	mv	a3,s7
    800002f0:	000b8813          	mv	a6,s7
    800002f4:	00001517          	auipc	a0,0x1
    800002f8:	9bc50513          	addi	a0,a0,-1604 # 80000cb0 <_etext+0x4c>
    800002fc:	00000593          	li	a1,0
    80000300:	06c00613          	li	a2,108
    80000304:	03c00893          	li	a7,60
    80000308:	00001e17          	auipc	t3,0x1
    8000030c:	a20e0e13          	addi	t3,t3,-1504 # 80000d28 <_etext+0xc4>
    80000310:	0080006f          	j	80000318 <vsnprintf+0x1ec>
    80000314:	00078593          	mv	a1,a5
    80000318:	fd06071b          	addiw	a4,a2,-48
    8000031c:	0ff77793          	zext.b	a5,a4
    80000320:	02f8e063          	bltu	a7,a5,80000340 <vsnprintf+0x214>
    80000324:	00fb57b3          	srl	a5,s6,a5
    80000328:	0017f793          	andi	a5,a5,1
    8000032c:	00078a63          	beqz	a5,80000340 <vsnprintf+0x214>
    80000330:	00e357b3          	srl	a5,t1,a4
    80000334:	00f7f793          	andi	a5,a5,15
    80000338:	00fe07b3          	add	a5,t3,a5
    8000033c:	0007c603          	lbu	a2,0(a5)
    80000340:	00150513          	addi	a0,a0,1
    80000344:	00c80023          	sb	a2,0(a6)
    80000348:	00054603          	lbu	a2,0(a0)
    8000034c:	0015879b          	addiw	a5,a1,1
    80000350:	00078713          	mv	a4,a5
    80000354:	00180813          	addi	a6,a6,1
    80000358:	fa061ee3          	bnez	a2,80000314 <vsnprintf+0x1e8>
    8000035c:	01300613          	li	a2,19
    80000360:	2cc78c63          	beq	a5,a2,80000638 <vsnprintf+0x50c>
    80000364:	001b8793          	addi	a5,s7,1
    80000368:	01470a3b          	addw	s4,a4,s4
    8000036c:	00b785b3          	add	a1,a5,a1
    80000370:	02040063          	beqz	s0,80000390 <vsnprintf+0x264>
    80000374:	0006c703          	lbu	a4,0(a3)
    80000378:	fff90913          	addi	s2,s2,-1
    8000037c:	00293413          	sltiu	s0,s2,2
    80000380:	00144413          	xori	s0,s0,1
    80000384:	00e98023          	sb	a4,0(s3)
    80000388:	0ff47413          	zext.b	s0,s0
    8000038c:	00198993          	addi	s3,s3,1
    80000390:	00078693          	mv	a3,a5
    80000394:	f2f588e3          	beq	a1,a5,800002c4 <vsnprintf+0x198>
    80000398:	00178793          	addi	a5,a5,1
    8000039c:	fd5ff06f          	j	80000370 <vsnprintf+0x244>
    800003a0:	000cbd03          	ld	s10,0(s9)
    800003a4:	008c8d93          	addi	s11,s9,8
    800003a8:	000d8c93          	mv	s9,s11
    800003ac:	f00d0ce3          	beqz	s10,800002c4 <vsnprintf+0x198>
    800003b0:	000d0513          	mv	a0,s10
    800003b4:	021000ef          	jal	ra,80000bd4 <strlen>
    800003b8:	0005071b          	sext.w	a4,a0
    800003bc:	01450a3b          	addw	s4,a0,s4
    800003c0:	f0e052e3          	blez	a4,800002c4 <vsnprintf+0x198>
    800003c4:	00000793          	li	a5,0
    800003c8:	02040263          	beqz	s0,800003ec <vsnprintf+0x2c0>
    800003cc:	000d4683          	lbu	a3,0(s10)
    800003d0:	fff90913          	addi	s2,s2,-1
    800003d4:	00293413          	sltiu	s0,s2,2
    800003d8:	00144413          	xori	s0,s0,1
    800003dc:	00d98023          	sb	a3,0(s3)
    800003e0:	0ff47413          	zext.b	s0,s0
    800003e4:	001d0d13          	addi	s10,s10,1
    800003e8:	00198993          	addi	s3,s3,1
    800003ec:	0017879b          	addiw	a5,a5,1
    800003f0:	fcf71ce3          	bne	a4,a5,800003c8 <vsnprintf+0x29c>
    800003f4:	0024c703          	lbu	a4,2(s1)
    800003f8:	000d8c93          	mv	s9,s11
    800003fc:	00248493          	addi	s1,s1,2
    80000400:	ecdff06f          	j	800002cc <vsnprintf+0x1a0>
    80000404:	000067b7          	lui	a5,0x6
    80000408:	00013023          	sd	zero,0(sp)
    8000040c:	83078793          	addi	a5,a5,-2000 # 5830 <_entry_offset+0x5830>
    80000410:	000cb303          	ld	t1,0(s9)
    80000414:	00013423          	sd	zero,8(sp)
    80000418:	008c8c93          	addi	s9,s9,8
    8000041c:	00011823          	sh	zero,16(sp)
    80000420:	00010923          	sb	zero,18(sp)
    80000424:	00f11023          	sh	a5,0(sp)
    80000428:	00210513          	addi	a0,sp,2
    8000042c:	00001597          	auipc	a1,0x1
    80000430:	88458593          	addi	a1,a1,-1916 # 80000cb0 <_etext+0x4c>
    80000434:	00200813          	li	a6,2
    80000438:	06c00613          	li	a2,108
    8000043c:	03c00693          	li	a3,60
    80000440:	00001897          	auipc	a7,0x1
    80000444:	8e888893          	addi	a7,a7,-1816 # 80000d28 <_etext+0xc4>
    80000448:	0080006f          	j	80000450 <vsnprintf+0x324>
    8000044c:	00070813          	mv	a6,a4
    80000450:	fd06071b          	addiw	a4,a2,-48
    80000454:	0ff77793          	zext.b	a5,a4
    80000458:	02f6e063          	bltu	a3,a5,80000478 <vsnprintf+0x34c>
    8000045c:	00fb57b3          	srl	a5,s6,a5
    80000460:	0017f793          	andi	a5,a5,1
    80000464:	00078a63          	beqz	a5,80000478 <vsnprintf+0x34c>
    80000468:	00e357b3          	srl	a5,t1,a4
    8000046c:	00f7f793          	andi	a5,a5,15
    80000470:	00f887b3          	add	a5,a7,a5
    80000474:	0007c603          	lbu	a2,0(a5)
    80000478:	00158593          	addi	a1,a1,1
    8000047c:	00c50023          	sb	a2,0(a0)
    80000480:	0005c603          	lbu	a2,0(a1)
    80000484:	0018071b          	addiw	a4,a6,1
    80000488:	00150513          	addi	a0,a0,1
    8000048c:	fc0610e3          	bnez	a2,8000044c <vsnprintf+0x320>
    80000490:	01300693          	li	a3,19
    80000494:	1cd70663          	beq	a4,a3,80000660 <vsnprintf+0x534>
    80000498:	01470a3b          	addw	s4,a4,s4
    8000049c:	00110713          	addi	a4,sp,1
    800004a0:	00010793          	mv	a5,sp
    800004a4:	01070733          	add	a4,a4,a6
    800004a8:	02040063          	beqz	s0,800004c8 <vsnprintf+0x39c>
    800004ac:	0007c683          	lbu	a3,0(a5)
    800004b0:	fff90913          	addi	s2,s2,-1
    800004b4:	00293413          	sltiu	s0,s2,2
    800004b8:	00144413          	xori	s0,s0,1
    800004bc:	00d98023          	sb	a3,0(s3)
    800004c0:	0ff47413          	zext.b	s0,s0
    800004c4:	00198993          	addi	s3,s3,1
    800004c8:	00178793          	addi	a5,a5,1
    800004cc:	fce79ee3          	bne	a5,a4,800004a8 <vsnprintf+0x37c>
    800004d0:	0024c703          	lbu	a4,2(s1)
    800004d4:	00248493          	addi	s1,s1,2
    800004d8:	df5ff06f          	j	800002cc <vsnprintf+0x1a0>
    800004dc:	000ca803          	lw	a6,0(s9)
    800004e0:	008c8c93          	addi	s9,s9,8
    800004e4:	0e084e63          	bltz	a6,800005e0 <vsnprintf+0x4b4>
    800004e8:	00013023          	sd	zero,0(sp)
    800004ec:	00013423          	sd	zero,8(sp)
    800004f0:	00013823          	sd	zero,16(sp)
    800004f4:	00010c23          	sb	zero,24(sp)
    800004f8:	00900793          	li	a5,9
    800004fc:	1307d263          	bge	a5,a6,80000620 <vsnprintf+0x4f4>
    80000500:	000b8613          	mv	a2,s7
    80000504:	000b8593          	mv	a1,s7
    80000508:	00900693          	li	a3,9
    8000050c:	00a00793          	li	a5,10
    80000510:	00078713          	mv	a4,a5
    80000514:	00a7879b          	addiw	a5,a5,10
    80000518:	fef85ce3          	bge	a6,a5,80000510 <vsnprintf+0x3e4>
    8000051c:	40e8073b          	subw	a4,a6,a4
    80000520:	0307071b          	addiw	a4,a4,48
    80000524:	00e58023          	sb	a4,0(a1)
    80000528:	00a00793          	li	a5,10
    8000052c:	00000713          	li	a4,0
    80000530:	0017071b          	addiw	a4,a4,1
    80000534:	00a7879b          	addiw	a5,a5,10
    80000538:	00070893          	mv	a7,a4
    8000053c:	fef85ae3          	bge	a6,a5,80000530 <vsnprintf+0x404>
    80000540:	00158793          	addi	a5,a1,1
    80000544:	d2e6d6e3          	bge	a3,a4,80000270 <vsnprintf+0x144>
    80000548:	00078593          	mv	a1,a5
    8000054c:	00070813          	mv	a6,a4
    80000550:	fbdff06f          	j	8000050c <vsnprintf+0x3e0>
    80000554:	001a0a1b          	addiw	s4,s4,1
    80000558:	008c8793          	addi	a5,s9,8
    8000055c:	06040a63          	beqz	s0,800005d0 <vsnprintf+0x4a4>
    80000560:	000ca703          	lw	a4,0(s9)
    80000564:	fff90913          	addi	s2,s2,-1
    80000568:	00078c93          	mv	s9,a5
    8000056c:	00e98023          	sb	a4,0(s3)
    80000570:	0024c703          	lbu	a4,2(s1)
    80000574:	00198993          	addi	s3,s3,1
    80000578:	00248493          	addi	s1,s1,2
    8000057c:	d51ff06f          	j	800002cc <vsnprintf+0x1a0>
    80000580:	0014c783          	lbu	a5,1(s1)
    80000584:	c4078ae3          	beqz	a5,800001d8 <vsnprintf+0xac>
    80000588:	00000413          	li	s0,0
    8000058c:	cce790e3          	bne	a5,a4,8000024c <vsnprintf+0x120>
    80000590:	0024c703          	lbu	a4,2(s1)
    80000594:	001a0a1b          	addiw	s4,s4,1
    80000598:	00248493          	addi	s1,s1,2
    8000059c:	d31ff06f          	j	800002cc <vsnprintf+0x1a0>
    800005a0:	0014c703          	lbu	a4,1(s1)
    800005a4:	00060493          	mv	s1,a2
    800005a8:	be071ee3          	bnez	a4,800001a4 <vsnprintf+0x78>
    800005ac:	c2dff06f          	j	800001d8 <vsnprintf+0xac>
    800005b0:	001a0a1b          	addiw	s4,s4,1
    800005b4:	d00408e3          	beqz	s0,800002c4 <vsnprintf+0x198>
    800005b8:	00e98023          	sb	a4,0(s3)
    800005bc:	0024c703          	lbu	a4,2(s1)
    800005c0:	fff90913          	addi	s2,s2,-1
    800005c4:	00198993          	addi	s3,s3,1
    800005c8:	00248493          	addi	s1,s1,2
    800005cc:	d01ff06f          	j	800002cc <vsnprintf+0x1a0>
    800005d0:	0024c703          	lbu	a4,2(s1)
    800005d4:	00078c93          	mv	s9,a5
    800005d8:	00248493          	addi	s1,s1,2
    800005dc:	cf1ff06f          	j	800002cc <vsnprintf+0x1a0>
    800005e0:	001a0a1b          	addiw	s4,s4,1
    800005e4:	02040063          	beqz	s0,80000604 <vsnprintf+0x4d8>
    800005e8:	fff90913          	addi	s2,s2,-1
    800005ec:	00293413          	sltiu	s0,s2,2
    800005f0:	00144413          	xori	s0,s0,1
    800005f4:	02d00793          	li	a5,45
    800005f8:	00f98023          	sb	a5,0(s3)
    800005fc:	0ff47413          	zext.b	s0,s0
    80000600:	00198993          	addi	s3,s3,1
    80000604:	4100083b          	negw	a6,a6
    80000608:	00013023          	sd	zero,0(sp)
    8000060c:	00013423          	sd	zero,8(sp)
    80000610:	00013823          	sd	zero,16(sp)
    80000614:	00010c23          	sb	zero,24(sp)
    80000618:	00900793          	li	a5,9
    8000061c:	ef07c2e3          	blt	a5,a6,80000500 <vsnprintf+0x3d4>
    80000620:	0308081b          	addiw	a6,a6,48
    80000624:	01010023          	sb	a6,0(sp)
    80000628:	00100793          	li	a5,1
    8000062c:	00000713          	li	a4,0
    80000630:	00010613          	mv	a2,sp
    80000634:	c5dff06f          	j	80000290 <vsnprintf+0x164>
    80000638:	17000613          	li	a2,368
    8000063c:	00000597          	auipc	a1,0x0
    80000640:	68c58593          	addi	a1,a1,1676 # 80000cc8 <_etext+0x64>
    80000644:	00000517          	auipc	a0,0x0
    80000648:	6c450513          	addi	a0,a0,1732 # 80000d08 <_etext+0xa4>
    8000064c:	024000ef          	jal	ra,80000670 <printf>
    80000650:	00100513          	li	a0,1
    80000654:	aadff0ef          	jal	ra,80000100 <halt>
    80000658:	14100613          	li	a2,321
    8000065c:	fe1ff06f          	j	8000063c <vsnprintf+0x510>
    80000660:	1a200613          	li	a2,418
    80000664:	fd9ff06f          	j	8000063c <vsnprintf+0x510>
    80000668:	0e400613          	li	a2,228
    8000066c:	fd1ff06f          	j	8000063c <vsnprintf+0x510>

0000000080000670 <printf>:
    80000670:	81010113          	addi	sp,sp,-2032
    80000674:	78913c23          	sd	s1,1944(sp)
    80000678:	7a113423          	sd	ra,1960(sp)
    8000067c:	7a813023          	sd	s0,1952(sp)
    80000680:	00001eb7          	lui	t4,0x1
    80000684:	f7010113          	addi	sp,sp,-144
    80000688:	01010f13          	addi	t5,sp,16
    8000068c:	838e8e13          	addi	t3,t4,-1992 # 838 <_entry_offset+0x838>
    80000690:	01ee0e33          	add	t3,t3,t5
    80000694:	00be3023          	sd	a1,0(t3)
    80000698:	840e8593          	addi	a1,t4,-1984
    8000069c:	01e585b3          	add	a1,a1,t5
    800006a0:	00c5b023          	sd	a2,0(a1)
    800006a4:	848e8613          	addi	a2,t4,-1976
    800006a8:	01010f93          	addi	t6,sp,16
    800006ac:	01e60633          	add	a2,a2,t5
    800006b0:	850e8f13          	addi	t5,t4,-1968
    800006b4:	00d63023          	sd	a3,0(a2)
    800006b8:	01ff0f33          	add	t5,t5,t6
    800006bc:	00ef3023          	sd	a4,0(t5)
    800006c0:	858e8713          	addi	a4,t4,-1960
    800006c4:	01f70733          	add	a4,a4,t6
    800006c8:	00f73023          	sd	a5,0(a4)
    800006cc:	860e8713          	addi	a4,t4,-1952
    800006d0:	01f70733          	add	a4,a4,t6
    800006d4:	01073023          	sd	a6,0(a4)
    800006d8:	fffffe37          	lui	t3,0xfffff
    800006dc:	868e8713          	addi	a4,t4,-1944
    800006e0:	810e8793          	addi	a5,t4,-2032
    800006e4:	848e8313          	addi	t1,t4,-1976
    800006e8:	01f70733          	add	a4,a4,t6
    800006ec:	01c787b3          	add	a5,a5,t3
    800006f0:	00230333          	add	t1,t1,sp
    800006f4:	01173023          	sd	a7,0(a4)
    800006f8:	01f787b3          	add	a5,a5,t6
    800006fc:	000015b7          	lui	a1,0x1
    80000700:	00050613          	mv	a2,a0
    80000704:	00030693          	mv	a3,t1
    80000708:	80058593          	addi	a1,a1,-2048 # 800 <_entry_offset+0x800>
    8000070c:	02010513          	addi	a0,sp,32
    80000710:	7e67bc23          	sd	t1,2040(a5)
    80000714:	00f13423          	sd	a5,8(sp)
    80000718:	a15ff0ef          	jal	ra,8000012c <vsnprintf>
    8000071c:	00050493          	mv	s1,a0
    80000720:	02014503          	lbu	a0,32(sp)
    80000724:	00050c63          	beqz	a0,8000073c <printf+0xcc>
    80000728:	02010413          	addi	s0,sp,32
    8000072c:	00140413          	addi	s0,s0,1
    80000730:	9c1ff0ef          	jal	ra,800000f0 <putch>
    80000734:	00044503          	lbu	a0,0(s0)
    80000738:	fe051ae3          	bnez	a0,8000072c <printf+0xbc>
    8000073c:	7ff00793          	li	a5,2047
    80000740:	0297c063          	blt	a5,s1,80000760 <printf+0xf0>
    80000744:	09010113          	addi	sp,sp,144
    80000748:	7a813083          	ld	ra,1960(sp)
    8000074c:	00048513          	mv	a0,s1
    80000750:	7a013403          	ld	s0,1952(sp)
    80000754:	79813483          	ld	s1,1944(sp)
    80000758:	7f010113          	addi	sp,sp,2032
    8000075c:	00008067          	ret
    80000760:	02400613          	li	a2,36
    80000764:	00000597          	auipc	a1,0x0
    80000768:	56458593          	addi	a1,a1,1380 # 80000cc8 <_etext+0x64>
    8000076c:	00000517          	auipc	a0,0x0
    80000770:	59c50513          	addi	a0,a0,1436 # 80000d08 <_etext+0xa4>
    80000774:	efdff0ef          	jal	ra,80000670 <printf>
    80000778:	00100513          	li	a0,1
    8000077c:	985ff0ef          	jal	ra,80000100 <halt>

0000000080000780 <vsprintf>:
    80000780:	f9010113          	addi	sp,sp,-112
    80000784:	06113423          	sd	ra,104(sp)
    80000788:	06813023          	sd	s0,96(sp)
    8000078c:	04913c23          	sd	s1,88(sp)
    80000790:	05213823          	sd	s2,80(sp)
    80000794:	05313423          	sd	s3,72(sp)
    80000798:	05413023          	sd	s4,64(sp)
    8000079c:	03513c23          	sd	s5,56(sp)
    800007a0:	03613823          	sd	s6,48(sp)
    800007a4:	03713423          	sd	s7,40(sp)
    800007a8:	03813023          	sd	s8,32(sp)
    800007ac:	3c058a63          	beqz	a1,80000b80 <vsprintf+0x400>
    800007b0:	0005c703          	lbu	a4,0(a1)
    800007b4:	00058493          	mv	s1,a1
    800007b8:	00050a13          	mv	s4,a0
    800007bc:	00050413          	mv	s0,a0
    800007c0:	38070c63          	beqz	a4,80000b58 <vsprintf+0x3d8>
    800007c4:	00010a93          	mv	s5,sp
    800007c8:	00100b13          	li	s6,1
    800007cc:	00000917          	auipc	s2,0x0
    800007d0:	5c890913          	addi	s2,s2,1480 # 80000d94 <_etext+0x130>
    800007d4:	00000997          	auipc	s3,0x0
    800007d8:	6249b983          	ld	s3,1572(s3) # 80000df8 <mainargs+0x8>
    800007dc:	415b0b3b          	subw	s6,s6,s5
    800007e0:	02500793          	li	a5,37
    800007e4:	04f70863          	beq	a4,a5,80000834 <vsprintf+0xb4>
    800007e8:	00e40023          	sb	a4,0(s0)
    800007ec:	0014c703          	lbu	a4,1(s1)
    800007f0:	00140413          	addi	s0,s0,1
    800007f4:	00148493          	addi	s1,s1,1
    800007f8:	fe0714e3          	bnez	a4,800007e0 <vsprintf+0x60>
    800007fc:	4144053b          	subw	a0,s0,s4
    80000800:	00040023          	sb	zero,0(s0)
    80000804:	06813083          	ld	ra,104(sp)
    80000808:	06013403          	ld	s0,96(sp)
    8000080c:	05813483          	ld	s1,88(sp)
    80000810:	05013903          	ld	s2,80(sp)
    80000814:	04813983          	ld	s3,72(sp)
    80000818:	04013a03          	ld	s4,64(sp)
    8000081c:	03813a83          	ld	s5,56(sp)
    80000820:	03013b03          	ld	s6,48(sp)
    80000824:	02813b83          	ld	s7,40(sp)
    80000828:	02013c03          	ld	s8,32(sp)
    8000082c:	07010113          	addi	sp,sp,112
    80000830:	00008067          	ret
    80000834:	0014c783          	lbu	a5,1(s1)
    80000838:	fc0782e3          	beqz	a5,800007fc <vsprintf+0x7c>
    8000083c:	24e78e63          	beq	a5,a4,80000a98 <vsprintf+0x318>
    80000840:	f9d7879b          	addiw	a5,a5,-99
    80000844:	0ff7f793          	zext.b	a5,a5
    80000848:	01500713          	li	a4,21
    8000084c:	02f76463          	bltu	a4,a5,80000874 <vsprintf+0xf4>
    80000850:	00279793          	slli	a5,a5,0x2
    80000854:	012787b3          	add	a5,a5,s2
    80000858:	0007a783          	lw	a5,0(a5)
    8000085c:	012787b3          	add	a5,a5,s2
    80000860:	00078067          	jr	a5
    80000864:	00062783          	lw	a5,0(a2)
    80000868:	00140413          	addi	s0,s0,1
    8000086c:	00860613          	addi	a2,a2,8
    80000870:	fef40fa3          	sb	a5,-1(s0)
    80000874:	0024c703          	lbu	a4,2(s1)
    80000878:	00248493          	addi	s1,s1,2
    8000087c:	f60712e3          	bnez	a4,800007e0 <vsprintf+0x60>
    80000880:	f7dff06f          	j	800007fc <vsprintf+0x7c>
    80000884:	00010513          	mv	a0,sp
    80000888:	00063e83          	ld	t4,0(a2)
    8000088c:	00013023          	sd	zero,0(sp)
    80000890:	00860613          	addi	a2,a2,8
    80000894:	00013423          	sd	zero,8(sp)
    80000898:	00011823          	sh	zero,16(sp)
    8000089c:	00010923          	sb	zero,18(sp)
    800008a0:	00050893          	mv	a7,a0
    800008a4:	00000817          	auipc	a6,0x0
    800008a8:	40c80813          	addi	a6,a6,1036 # 80000cb0 <_etext+0x4c>
    800008ac:	00000693          	li	a3,0
    800008b0:	06c00593          	li	a1,108
    800008b4:	03c00313          	li	t1,60
    800008b8:	00000e17          	auipc	t3,0x0
    800008bc:	470e0e13          	addi	t3,t3,1136 # 80000d28 <_etext+0xc4>
    800008c0:	0080006f          	j	800008c8 <vsprintf+0x148>
    800008c4:	00078693          	mv	a3,a5
    800008c8:	fd05871b          	addiw	a4,a1,-48
    800008cc:	0ff77793          	zext.b	a5,a4
    800008d0:	02f36063          	bltu	t1,a5,800008f0 <vsprintf+0x170>
    800008d4:	00f9d7b3          	srl	a5,s3,a5
    800008d8:	0017f793          	andi	a5,a5,1
    800008dc:	00078a63          	beqz	a5,800008f0 <vsprintf+0x170>
    800008e0:	00eed7b3          	srl	a5,t4,a4
    800008e4:	00f7f793          	andi	a5,a5,15
    800008e8:	00fe07b3          	add	a5,t3,a5
    800008ec:	0007c583          	lbu	a1,0(a5)
    800008f0:	00180813          	addi	a6,a6,1
    800008f4:	00b88023          	sb	a1,0(a7)
    800008f8:	00084583          	lbu	a1,0(a6)
    800008fc:	0016879b          	addiw	a5,a3,1
    80000900:	00188893          	addi	a7,a7,1
    80000904:	fc0590e3          	bnez	a1,800008c4 <vsprintf+0x144>
    80000908:	01300713          	li	a4,19
    8000090c:	24e78a63          	beq	a5,a4,80000b60 <vsprintf+0x3e0>
    80000910:	00f407b3          	add	a5,s0,a5
    80000914:	00054703          	lbu	a4,0(a0)
    80000918:	00140413          	addi	s0,s0,1
    8000091c:	00150513          	addi	a0,a0,1
    80000920:	fee40fa3          	sb	a4,-1(s0)
    80000924:	fef418e3          	bne	s0,a5,80000914 <vsprintf+0x194>
    80000928:	0024c703          	lbu	a4,2(s1)
    8000092c:	00248493          	addi	s1,s1,2
    80000930:	f4dff06f          	j	8000087c <vsprintf+0xfc>
    80000934:	00063b83          	ld	s7,0(a2)
    80000938:	00860c13          	addi	s8,a2,8
    8000093c:	1a0b9c63          	bnez	s7,80000af4 <vsprintf+0x374>
    80000940:	0024c703          	lbu	a4,2(s1)
    80000944:	000c0613          	mv	a2,s8
    80000948:	00248493          	addi	s1,s1,2
    8000094c:	f31ff06f          	j	8000087c <vsprintf+0xfc>
    80000950:	000067b7          	lui	a5,0x6
    80000954:	00013023          	sd	zero,0(sp)
    80000958:	83078793          	addi	a5,a5,-2000 # 5830 <_entry_offset+0x5830>
    8000095c:	00063e03          	ld	t3,0(a2)
    80000960:	00013423          	sd	zero,8(sp)
    80000964:	00860613          	addi	a2,a2,8
    80000968:	00011823          	sh	zero,16(sp)
    8000096c:	00010923          	sb	zero,18(sp)
    80000970:	00f11023          	sh	a5,0(sp)
    80000974:	00210813          	addi	a6,sp,2
    80000978:	00000517          	auipc	a0,0x0
    8000097c:	33850513          	addi	a0,a0,824 # 80000cb0 <_etext+0x4c>
    80000980:	00200693          	li	a3,2
    80000984:	06c00593          	li	a1,108
    80000988:	03c00893          	li	a7,60
    8000098c:	00000317          	auipc	t1,0x0
    80000990:	39c30313          	addi	t1,t1,924 # 80000d28 <_etext+0xc4>
    80000994:	0080006f          	j	8000099c <vsprintf+0x21c>
    80000998:	00078693          	mv	a3,a5
    8000099c:	fd05871b          	addiw	a4,a1,-48
    800009a0:	0ff77793          	zext.b	a5,a4
    800009a4:	02f8e063          	bltu	a7,a5,800009c4 <vsprintf+0x244>
    800009a8:	00f9d7b3          	srl	a5,s3,a5
    800009ac:	0017f793          	andi	a5,a5,1
    800009b0:	00078a63          	beqz	a5,800009c4 <vsprintf+0x244>
    800009b4:	00ee57b3          	srl	a5,t3,a4
    800009b8:	00f7f793          	andi	a5,a5,15
    800009bc:	00f307b3          	add	a5,t1,a5
    800009c0:	0007c583          	lbu	a1,0(a5)
    800009c4:	00150513          	addi	a0,a0,1
    800009c8:	00b80023          	sb	a1,0(a6)
    800009cc:	00054583          	lbu	a1,0(a0)
    800009d0:	0016879b          	addiw	a5,a3,1
    800009d4:	00180813          	addi	a6,a6,1
    800009d8:	fc0590e3          	bnez	a1,80000998 <vsprintf+0x218>
    800009dc:	01300713          	li	a4,19
    800009e0:	1ae78463          	beq	a5,a4,80000b88 <vsprintf+0x408>
    800009e4:	00010713          	mv	a4,sp
    800009e8:	00f407b3          	add	a5,s0,a5
    800009ec:	00074683          	lbu	a3,0(a4)
    800009f0:	00140413          	addi	s0,s0,1
    800009f4:	00170713          	addi	a4,a4,1
    800009f8:	fed40fa3          	sb	a3,-1(s0)
    800009fc:	fef418e3          	bne	s0,a5,800009ec <vsprintf+0x26c>
    80000a00:	0024c703          	lbu	a4,2(s1)
    80000a04:	00248493          	addi	s1,s1,2
    80000a08:	e75ff06f          	j	8000087c <vsprintf+0xfc>
    80000a0c:	00062683          	lw	a3,0(a2)
    80000a10:	00040593          	mv	a1,s0
    80000a14:	00860613          	addi	a2,a2,8
    80000a18:	0006da63          	bgez	a3,80000a2c <vsprintf+0x2ac>
    80000a1c:	02d00793          	li	a5,45
    80000a20:	00140593          	addi	a1,s0,1
    80000a24:	00f40023          	sb	a5,0(s0)
    80000a28:	40d006bb          	negw	a3,a3
    80000a2c:	00013023          	sd	zero,0(sp)
    80000a30:	00013423          	sd	zero,8(sp)
    80000a34:	00013823          	sd	zero,16(sp)
    80000a38:	00010c23          	sb	zero,24(sp)
    80000a3c:	00900793          	li	a5,9
    80000a40:	10d7d263          	bge	a5,a3,80000b44 <vsprintf+0x3c4>
    80000a44:	000a8893          	mv	a7,s5
    80000a48:	000a8513          	mv	a0,s5
    80000a4c:	00900313          	li	t1,9
    80000a50:	00a00793          	li	a5,10
    80000a54:	00078713          	mv	a4,a5
    80000a58:	00a7879b          	addiw	a5,a5,10
    80000a5c:	fef6dce3          	bge	a3,a5,80000a54 <vsprintf+0x2d4>
    80000a60:	40e6873b          	subw	a4,a3,a4
    80000a64:	0307071b          	addiw	a4,a4,48
    80000a68:	00e50023          	sb	a4,0(a0)
    80000a6c:	00a00793          	li	a5,10
    80000a70:	00000713          	li	a4,0
    80000a74:	0017071b          	addiw	a4,a4,1
    80000a78:	00a7879b          	addiw	a5,a5,10
    80000a7c:	00070813          	mv	a6,a4
    80000a80:	fef6dae3          	bge	a3,a5,80000a74 <vsprintf+0x2f4>
    80000a84:	00150793          	addi	a5,a0,1
    80000a88:	02e35263          	bge	t1,a4,80000aac <vsprintf+0x32c>
    80000a8c:	00078513          	mv	a0,a5
    80000a90:	00070693          	mv	a3,a4
    80000a94:	fbdff06f          	j	80000a50 <vsprintf+0x2d0>
    80000a98:	00e40023          	sb	a4,0(s0)
    80000a9c:	0024c703          	lbu	a4,2(s1)
    80000aa0:	00140413          	addi	s0,s0,1
    80000aa4:	00248493          	addi	s1,s1,2
    80000aa8:	dd5ff06f          	j	8000087c <vsprintf+0xfc>
    80000aac:	00ab053b          	addw	a0,s6,a0
    80000ab0:	02050793          	addi	a5,a0,32
    80000ab4:	002787b3          	add	a5,a5,sp
    80000ab8:	0308081b          	addiw	a6,a6,48
    80000abc:	ff078023          	sb	a6,-32(a5)
    80000ac0:	01800793          	li	a5,24
    80000ac4:	0cf50663          	beq	a0,a5,80000b90 <vsprintf+0x410>
    80000ac8:	0015041b          	addiw	s0,a0,1
    80000acc:	00a887b3          	add	a5,a7,a0
    80000ad0:	00858433          	add	s0,a1,s0
    80000ad4:	0007c703          	lbu	a4,0(a5)
    80000ad8:	00158593          	addi	a1,a1,1
    80000adc:	fff78793          	addi	a5,a5,-1
    80000ae0:	fee58fa3          	sb	a4,-1(a1)
    80000ae4:	feb418e3          	bne	s0,a1,80000ad4 <vsprintf+0x354>
    80000ae8:	0024c703          	lbu	a4,2(s1)
    80000aec:	00248493          	addi	s1,s1,2
    80000af0:	d8dff06f          	j	8000087c <vsprintf+0xfc>
    80000af4:	000b8513          	mv	a0,s7
    80000af8:	0dc000ef          	jal	ra,80000bd4 <strlen>
    80000afc:	0005079b          	sext.w	a5,a0
    80000b00:	e4f050e3          	blez	a5,80000940 <vsprintf+0x1c0>
    80000b04:	fff5069b          	addiw	a3,a0,-1
    80000b08:	02069693          	slli	a3,a3,0x20
    80000b0c:	0206d693          	srli	a3,a3,0x20
    80000b10:	00168693          	addi	a3,a3,1
    80000b14:	00db85b3          	add	a1,s7,a3
    80000b18:	00040793          	mv	a5,s0
    80000b1c:	000bc703          	lbu	a4,0(s7)
    80000b20:	001b8b93          	addi	s7,s7,1
    80000b24:	00178793          	addi	a5,a5,1
    80000b28:	fee78fa3          	sb	a4,-1(a5)
    80000b2c:	febb98e3          	bne	s7,a1,80000b1c <vsprintf+0x39c>
    80000b30:	0024c703          	lbu	a4,2(s1)
    80000b34:	00d40433          	add	s0,s0,a3
    80000b38:	000c0613          	mv	a2,s8
    80000b3c:	00248493          	addi	s1,s1,2
    80000b40:	d3dff06f          	j	8000087c <vsprintf+0xfc>
    80000b44:	0306869b          	addiw	a3,a3,48
    80000b48:	00d10023          	sb	a3,0(sp)
    80000b4c:	00000513          	li	a0,0
    80000b50:	00010893          	mv	a7,sp
    80000b54:	f75ff06f          	j	80000ac8 <vsprintf+0x348>
    80000b58:	00000513          	li	a0,0
    80000b5c:	ca5ff06f          	j	80000800 <vsprintf+0x80>
    80000b60:	08900613          	li	a2,137
    80000b64:	00000597          	auipc	a1,0x0
    80000b68:	16458593          	addi	a1,a1,356 # 80000cc8 <_etext+0x64>
    80000b6c:	00000517          	auipc	a0,0x0
    80000b70:	19c50513          	addi	a0,a0,412 # 80000d08 <_etext+0xa4>
    80000b74:	afdff0ef          	jal	ra,80000670 <printf>
    80000b78:	00100513          	li	a0,1
    80000b7c:	d84ff0ef          	jal	ra,80000100 <halt>
    80000b80:	02c00613          	li	a2,44
    80000b84:	fe1ff06f          	j	80000b64 <vsprintf+0x3e4>
    80000b88:	0b200613          	li	a2,178
    80000b8c:	fd9ff06f          	j	80000b64 <vsprintf+0x3e4>
    80000b90:	06000613          	li	a2,96
    80000b94:	fd1ff06f          	j	80000b64 <vsprintf+0x3e4>

0000000080000b98 <sprintf>:
    80000b98:	fb010113          	addi	sp,sp,-80
    80000b9c:	02010313          	addi	t1,sp,32
    80000ba0:	02c13023          	sd	a2,32(sp)
    80000ba4:	00030613          	mv	a2,t1
    80000ba8:	00113c23          	sd	ra,24(sp)
    80000bac:	02d13423          	sd	a3,40(sp)
    80000bb0:	02e13823          	sd	a4,48(sp)
    80000bb4:	02f13c23          	sd	a5,56(sp)
    80000bb8:	05013023          	sd	a6,64(sp)
    80000bbc:	05113423          	sd	a7,72(sp)
    80000bc0:	00613423          	sd	t1,8(sp)
    80000bc4:	bbdff0ef          	jal	ra,80000780 <vsprintf>
    80000bc8:	01813083          	ld	ra,24(sp)
    80000bcc:	05010113          	addi	sp,sp,80
    80000bd0:	00008067          	ret

0000000080000bd4 <strlen>:
    80000bd4:	00054783          	lbu	a5,0(a0)
    80000bd8:	00050713          	mv	a4,a0
    80000bdc:	00000513          	li	a0,0
    80000be0:	00078c63          	beqz	a5,80000bf8 <strlen+0x24>
    80000be4:	00150513          	addi	a0,a0,1
    80000be8:	00a707b3          	add	a5,a4,a0
    80000bec:	0007c783          	lbu	a5,0(a5)
    80000bf0:	fe079ae3          	bnez	a5,80000be4 <strlen+0x10>
    80000bf4:	00008067          	ret
    80000bf8:	00008067          	ret

0000000080000bfc <strcmp>:
    80000bfc:	00054783          	lbu	a5,0(a0)
    80000c00:	00079c63          	bnez	a5,80000c18 <strcmp+0x1c>
    80000c04:	0500006f          	j	80000c54 <strcmp+0x58>
    80000c08:	02f71463          	bne	a4,a5,80000c30 <strcmp+0x34>
    80000c0c:	00054783          	lbu	a5,0(a0)
    80000c10:	02078a63          	beqz	a5,80000c44 <strcmp+0x48>
    80000c14:	00068593          	mv	a1,a3
    80000c18:	0005c703          	lbu	a4,0(a1)
    80000c1c:	00150513          	addi	a0,a0,1
    80000c20:	00158693          	addi	a3,a1,1
    80000c24:	fe0712e3          	bnez	a4,80000c08 <strcmp+0xc>
    80000c28:	00100513          	li	a0,1
    80000c2c:	00008067          	ret
    80000c30:	40e7853b          	subw	a0,a5,a4
    80000c34:	00e78663          	beq	a5,a4,80000c40 <strcmp+0x44>
    80000c38:	fea048e3          	bgtz	a0,80000c28 <strcmp+0x2c>
    80000c3c:	fff00513          	li	a0,-1
    80000c40:	00008067          	ret
    80000c44:	0015c503          	lbu	a0,1(a1)
    80000c48:	00a03533          	snez	a0,a0
    80000c4c:	40a00533          	neg	a0,a0
    80000c50:	00008067          	ret
    80000c54:	0005c503          	lbu	a0,0(a1)
    80000c58:	00a03533          	snez	a0,a0
    80000c5c:	40a00533          	neg	a0,a0
    80000c60:	00008067          	ret
