
/home/lxf/neuopenrtplatform/am-kernels/tests/cpu-tests/build/mov-c-riscv64-nemu.elf:     file format elf64-littleriscv


Disassembly of section .text:

0000000080000000 <_start>:
    80000000:	00000413          	li	s0,0
    80000004:	00009117          	auipc	sp,0x9
    80000008:	ffc10113          	addi	sp,sp,-4 # 80009000 <_end>
    8000000c:	0fc000ef          	jal	ra,80000108 <_trm_init>

0000000080000010 <check>:
    80000010:	00050463          	beqz	a0,80000018 <check+0x8>
    80000014:	00008067          	ret
    80000018:	ff010113          	addi	sp,sp,-16
    8000001c:	00100513          	li	a0,1
    80000020:	00113423          	sd	ra,8(sp)
    80000024:	0d8000ef          	jal	ra,800000fc <halt>

0000000080000028 <main>:
    80000028:	ff010113          	addi	sp,sp,-16
    8000002c:	00113423          	sd	ra,8(sp)
    80000030:	00813023          	sd	s0,0(sp)
    80000034:	00000417          	auipc	s0,0x0
    80000038:	0fc40413          	addi	s0,s0,252 # 80000130 <A>
    8000003c:	00042023          	sw	zero,0(s0)
    80000040:	00100793          	li	a5,1
    80000044:	00f42223          	sw	a5,4(s0)
    80000048:	00200793          	li	a5,2
    8000004c:	00f42423          	sw	a5,8(s0)
    80000050:	00300793          	li	a5,3
    80000054:	00f42623          	sw	a5,12(s0)
    80000058:	00400793          	li	a5,4
    8000005c:	00f42823          	sw	a5,16(s0)
    80000060:	00c42783          	lw	a5,12(s0)
    80000064:	00000717          	auipc	a4,0x0
    80000068:	0ef72a23          	sw	a5,244(a4) # 80000158 <b>
    8000006c:	00000797          	auipc	a5,0x0
    80000070:	0ec7a783          	lw	a5,236(a5) # 80000158 <b>
    80000074:	00f42a23          	sw	a5,20(s0)
    80000078:	00042503          	lw	a0,0(s0)
    8000007c:	00153513          	seqz	a0,a0
    80000080:	f91ff0ef          	jal	ra,80000010 <check>
    80000084:	00442503          	lw	a0,4(s0)
    80000088:	fff50513          	addi	a0,a0,-1
    8000008c:	00153513          	seqz	a0,a0
    80000090:	f81ff0ef          	jal	ra,80000010 <check>
    80000094:	00842503          	lw	a0,8(s0)
    80000098:	ffe50513          	addi	a0,a0,-2
    8000009c:	00153513          	seqz	a0,a0
    800000a0:	f71ff0ef          	jal	ra,80000010 <check>
    800000a4:	00c42503          	lw	a0,12(s0)
    800000a8:	ffd50513          	addi	a0,a0,-3
    800000ac:	00153513          	seqz	a0,a0
    800000b0:	f61ff0ef          	jal	ra,80000010 <check>
    800000b4:	01042503          	lw	a0,16(s0)
    800000b8:	ffc50513          	addi	a0,a0,-4
    800000bc:	00153513          	seqz	a0,a0
    800000c0:	f51ff0ef          	jal	ra,80000010 <check>
    800000c4:	00000517          	auipc	a0,0x0
    800000c8:	09452503          	lw	a0,148(a0) # 80000158 <b>
    800000cc:	ffd50513          	addi	a0,a0,-3
    800000d0:	00153513          	seqz	a0,a0
    800000d4:	f3dff0ef          	jal	ra,80000010 <check>
    800000d8:	01442503          	lw	a0,20(s0)
    800000dc:	ffd50513          	addi	a0,a0,-3
    800000e0:	00153513          	seqz	a0,a0
    800000e4:	f2dff0ef          	jal	ra,80000010 <check>
    800000e8:	00813083          	ld	ra,8(sp)
    800000ec:	00013403          	ld	s0,0(sp)
    800000f0:	00000513          	li	a0,0
    800000f4:	01010113          	addi	sp,sp,16
    800000f8:	00008067          	ret

00000000800000fc <halt>:
    800000fc:	00050513          	mv	a0,a0
    80000100:	00100073          	ebreak
    80000104:	0000006f          	j	80000104 <halt+0x8>

0000000080000108 <_trm_init>:
    80000108:	ff010113          	addi	sp,sp,-16
    8000010c:	00000517          	auipc	a0,0x0
    80000110:	01c50513          	addi	a0,a0,28 # 80000128 <_etext>
    80000114:	00113423          	sd	ra,8(sp)
    80000118:	f11ff0ef          	jal	ra,80000028 <main>
    8000011c:	00050513          	mv	a0,a0
    80000120:	00100073          	ebreak
    80000124:	0000006f          	j	80000124 <_trm_init+0x1c>
