
/home/lxf/neuopenrtplatform/am-kernels/tests/cpu-tests/build/movsx-riscv64-nemu.elf:     file format elf64-littleriscv


Disassembly of section .text:

0000000080000000 <_start>:
    80000000:	00000413          	li	s0,0
    80000004:	00009117          	auipc	sp,0x9
    80000008:	ffc10113          	addi	sp,sp,-4 # 80009000 <_end>
    8000000c:	1a8000ef          	jal	ra,800001b4 <_trm_init>

0000000080000010 <check>:
    80000010:	00050463          	beqz	a0,80000018 <check+0x8>
    80000014:	00008067          	ret
    80000018:	ff010113          	addi	sp,sp,-16
    8000001c:	00100513          	li	a0,1
    80000020:	00113423          	sd	ra,8(sp)
    80000024:	184000ef          	jal	ra,800001a8 <halt>

0000000080000028 <main>:
    80000028:	fe010113          	addi	sp,sp,-32
    8000002c:	00113c23          	sd	ra,24(sp)
    80000030:	00813823          	sd	s0,16(sp)
    80000034:	00913423          	sd	s1,8(sp)
    80000038:	00000417          	auipc	s0,0x0
    8000003c:	1b840413          	addi	s0,s0,440 # 800001f0 <A>
    80000040:	00042023          	sw	zero,0(s0)
    80000044:	00100793          	li	a5,1
    80000048:	00f42223          	sw	a5,4(s0)
    8000004c:	00200793          	li	a5,2
    80000050:	00f42423          	sw	a5,8(s0)
    80000054:	00300793          	li	a5,3
    80000058:	00f42623          	sw	a5,12(s0)
    8000005c:	00400793          	li	a5,4
    80000060:	00f42823          	sw	a5,16(s0)
    80000064:	00c42783          	lw	a5,12(s0)
    80000068:	00000497          	auipc	s1,0x0
    8000006c:	17848493          	addi	s1,s1,376 # 800001e0 <C>
    80000070:	00000717          	auipc	a4,0x0
    80000074:	1af72423          	sw	a5,424(a4) # 80000218 <b>
    80000078:	00000797          	auipc	a5,0x0
    8000007c:	1a07a783          	lw	a5,416(a5) # 80000218 <b>
    80000080:	00f42a23          	sw	a5,20(s0)
    80000084:	06100793          	li	a5,97
    80000088:	00f48023          	sb	a5,0(s1)
    8000008c:	0004c503          	lbu	a0,0(s1)
    80000090:	0185151b          	slliw	a0,a0,0x18
    80000094:	4185551b          	sraiw	a0,a0,0x18
    80000098:	f9f50513          	addi	a0,a0,-97
    8000009c:	00153513          	seqz	a0,a0
    800000a0:	f71ff0ef          	jal	ra,80000010 <check>
    800000a4:	0004c783          	lbu	a5,0(s1)
    800000a8:	0187979b          	slliw	a5,a5,0x18
    800000ac:	4187d79b          	sraiw	a5,a5,0x18
    800000b0:	00f480a3          	sb	a5,1(s1)
    800000b4:	0014c503          	lbu	a0,1(s1)
    800000b8:	0185151b          	slliw	a0,a0,0x18
    800000bc:	4185551b          	sraiw	a0,a0,0x18
    800000c0:	f9f50513          	addi	a0,a0,-97
    800000c4:	00153513          	seqz	a0,a0
    800000c8:	f49ff0ef          	jal	ra,80000010 <check>
    800000cc:	0004c783          	lbu	a5,0(s1)
    800000d0:	0187979b          	slliw	a5,a5,0x18
    800000d4:	4187d79b          	sraiw	a5,a5,0x18
    800000d8:	00f42023          	sw	a5,0(s0)
    800000dc:	00042503          	lw	a0,0(s0)
    800000e0:	f9f50513          	addi	a0,a0,-97
    800000e4:	00153513          	seqz	a0,a0
    800000e8:	f29ff0ef          	jal	ra,80000010 <check>
    800000ec:	f8000793          	li	a5,-128
    800000f0:	00f480a3          	sb	a5,1(s1)
    800000f4:	0014c783          	lbu	a5,1(s1)
    800000f8:	0187979b          	slliw	a5,a5,0x18
    800000fc:	4187d79b          	sraiw	a5,a5,0x18
    80000100:	00f42023          	sw	a5,0(s0)
    80000104:	00442503          	lw	a0,4(s0)
    80000108:	fff50513          	addi	a0,a0,-1
    8000010c:	00153513          	seqz	a0,a0
    80000110:	f01ff0ef          	jal	ra,80000010 <check>
    80000114:	00842503          	lw	a0,8(s0)
    80000118:	ffe50513          	addi	a0,a0,-2
    8000011c:	00153513          	seqz	a0,a0
    80000120:	ef1ff0ef          	jal	ra,80000010 <check>
    80000124:	00c42503          	lw	a0,12(s0)
    80000128:	ffd50513          	addi	a0,a0,-3
    8000012c:	00153513          	seqz	a0,a0
    80000130:	ee1ff0ef          	jal	ra,80000010 <check>
    80000134:	01042503          	lw	a0,16(s0)
    80000138:	ffc50513          	addi	a0,a0,-4
    8000013c:	00153513          	seqz	a0,a0
    80000140:	ed1ff0ef          	jal	ra,80000010 <check>
    80000144:	00000517          	auipc	a0,0x0
    80000148:	0d452503          	lw	a0,212(a0) # 80000218 <b>
    8000014c:	ffd50513          	addi	a0,a0,-3
    80000150:	00153513          	seqz	a0,a0
    80000154:	ebdff0ef          	jal	ra,80000010 <check>
    80000158:	01442503          	lw	a0,20(s0)
    8000015c:	ffd50513          	addi	a0,a0,-3
    80000160:	00153513          	seqz	a0,a0
    80000164:	eadff0ef          	jal	ra,80000010 <check>
    80000168:	0014c503          	lbu	a0,1(s1)
    8000016c:	0185151b          	slliw	a0,a0,0x18
    80000170:	4185551b          	sraiw	a0,a0,0x18
    80000174:	08050513          	addi	a0,a0,128
    80000178:	00153513          	seqz	a0,a0
    8000017c:	e95ff0ef          	jal	ra,80000010 <check>
    80000180:	00042503          	lw	a0,0(s0)
    80000184:	08050513          	addi	a0,a0,128
    80000188:	00153513          	seqz	a0,a0
    8000018c:	e85ff0ef          	jal	ra,80000010 <check>
    80000190:	01813083          	ld	ra,24(sp)
    80000194:	01013403          	ld	s0,16(sp)
    80000198:	00813483          	ld	s1,8(sp)
    8000019c:	00000513          	li	a0,0
    800001a0:	02010113          	addi	sp,sp,32
    800001a4:	00008067          	ret

00000000800001a8 <halt>:
    800001a8:	00050513          	mv	a0,a0
    800001ac:	00100073          	ebreak
    800001b0:	0000006f          	j	800001b0 <halt+0x8>

00000000800001b4 <_trm_init>:
    800001b4:	ff010113          	addi	sp,sp,-16
    800001b8:	00000517          	auipc	a0,0x0
    800001bc:	02050513          	addi	a0,a0,32 # 800001d8 <mainargs>
    800001c0:	00113423          	sd	ra,8(sp)
    800001c4:	e65ff0ef          	jal	ra,80000028 <main>
    800001c8:	00050513          	mv	a0,a0
    800001cc:	00100073          	ebreak
    800001d0:	0000006f          	j	800001d0 <_trm_init+0x1c>
