
/home/lxf/neuopenrtplatform/am-kernels/tests/cpu-tests/build/quick-sort-riscv64-nemu.elf:     file format elf64-littleriscv


Disassembly of section .text:

0000000080000000 <_start>:
    80000000:	00000413          	li	s0,0
    80000004:	00009117          	auipc	sp,0x9
    80000008:	ffc10113          	addi	sp,sp,-4 # 80009000 <_end>
    8000000c:	3a4000ef          	jal	ra,800003b0 <_trm_init>

0000000080000010 <check>:
    80000010:	00050463          	beqz	a0,80000018 <check+0x8>
    80000014:	00008067          	ret
    80000018:	ff010113          	addi	sp,sp,-16
    8000001c:	00100513          	li	a0,1
    80000020:	00113423          	sd	ra,8(sp)
    80000024:	380000ef          	jal	ra,800003a4 <halt>

0000000080000028 <partition>:
    80000028:	00259813          	slli	a6,a1,0x2
    8000002c:	01050833          	add	a6,a0,a6
    80000030:	00050893          	mv	a7,a0
    80000034:	00060513          	mv	a0,a2
    80000038:	00082603          	lw	a2,0(a6)
    8000003c:	06a5dc63          	bge	a1,a0,800000b4 <partition+0x8c>
    80000040:	00251793          	slli	a5,a0,0x2
    80000044:	00f887b3          	add	a5,a7,a5
    80000048:	0007a783          	lw	a5,0(a5)
    8000004c:	fff50713          	addi	a4,a0,-1
    80000050:	00271713          	slli	a4,a4,0x2
    80000054:	00e88733          	add	a4,a7,a4
    80000058:	00f65e63          	bge	a2,a5,80000074 <partition+0x4c>
    8000005c:	fff5051b          	addiw	a0,a0,-1
    80000060:	00072783          	lw	a5,0(a4)
    80000064:	ffc70693          	addi	a3,a4,-4
    80000068:	06b50663          	beq	a0,a1,800000d4 <partition+0xac>
    8000006c:	00068713          	mv	a4,a3
    80000070:	fef646e3          	blt	a2,a5,8000005c <partition+0x34>
    80000074:	00259813          	slli	a6,a1,0x2
    80000078:	01088833          	add	a6,a7,a6
    8000007c:	00251313          	slli	t1,a0,0x2
    80000080:	00f82023          	sw	a5,0(a6)
    80000084:	00688733          	add	a4,a7,t1
    80000088:	04a5de63          	bge	a1,a0,800000e4 <partition+0xbc>
    8000008c:	00080693          	mv	a3,a6
    80000090:	00c0006f          	j	8000009c <partition+0x74>
    80000094:	0015859b          	addiw	a1,a1,1
    80000098:	02a58463          	beq	a1,a0,800000c0 <partition+0x98>
    8000009c:	0006a783          	lw	a5,0(a3)
    800000a0:	00068813          	mv	a6,a3
    800000a4:	00468693          	addi	a3,a3,4
    800000a8:	fef656e3          	bge	a2,a5,80000094 <partition+0x6c>
    800000ac:	00f72023          	sw	a5,0(a4)
    800000b0:	f8a5cee3          	blt	a1,a0,8000004c <partition+0x24>
    800000b4:	00058513          	mv	a0,a1
    800000b8:	00c82023          	sw	a2,0(a6)
    800000bc:	00008067          	ret
    800000c0:	00688833          	add	a6,a7,t1
    800000c4:	00082783          	lw	a5,0(a6)
    800000c8:	00f72023          	sw	a5,0(a4)
    800000cc:	00c82023          	sw	a2,0(a6)
    800000d0:	00008067          	ret
    800000d4:	00251813          	slli	a6,a0,0x2
    800000d8:	01088833          	add	a6,a7,a6
    800000dc:	00f82023          	sw	a5,0(a6)
    800000e0:	fe9ff06f          	j	800000c8 <partition+0xa0>
    800000e4:	00058513          	mv	a0,a1
    800000e8:	fe1ff06f          	j	800000c8 <partition+0xa0>

00000000800000ec <quick_sort>:
    800000ec:	1ec5da63          	bge	a1,a2,800002e0 <quick_sort+0x1f4>
    800000f0:	f5010113          	addi	sp,sp,-176
    800000f4:	0a813023          	sd	s0,160(sp)
    800000f8:	07613823          	sd	s6,112(sp)
    800000fc:	07813023          	sd	s8,96(sp)
    80000100:	0a113423          	sd	ra,168(sp)
    80000104:	08913c23          	sd	s1,152(sp)
    80000108:	09213823          	sd	s2,144(sp)
    8000010c:	09313423          	sd	s3,136(sp)
    80000110:	09413023          	sd	s4,128(sp)
    80000114:	07513c23          	sd	s5,120(sp)
    80000118:	07713423          	sd	s7,104(sp)
    8000011c:	05913c23          	sd	s9,88(sp)
    80000120:	05a13823          	sd	s10,80(sp)
    80000124:	05b13423          	sd	s11,72(sp)
    80000128:	00058c13          	mv	s8,a1
    8000012c:	00060b13          	mv	s6,a2
    80000130:	00050413          	mv	s0,a0
    80000134:	000b0613          	mv	a2,s6
    80000138:	000c0593          	mv	a1,s8
    8000013c:	00040513          	mv	a0,s0
    80000140:	ee9ff0ef          	jal	ra,80000028 <partition>
    80000144:	00a13423          	sd	a0,8(sp)
    80000148:	fff50c9b          	addiw	s9,a0,-1
    8000014c:	159c5663          	bge	s8,s9,80000298 <quick_sort+0x1ac>
    80000150:	000c8613          	mv	a2,s9
    80000154:	000c0593          	mv	a1,s8
    80000158:	00040513          	mv	a0,s0
    8000015c:	ecdff0ef          	jal	ra,80000028 <partition>
    80000160:	00a13823          	sd	a0,16(sp)
    80000164:	fff50d1b          	addiw	s10,a0,-1
    80000168:	13ac5263          	bge	s8,s10,8000028c <quick_sort+0x1a0>
    8000016c:	000d0613          	mv	a2,s10
    80000170:	000c0593          	mv	a1,s8
    80000174:	00040513          	mv	a0,s0
    80000178:	eb1ff0ef          	jal	ra,80000028 <partition>
    8000017c:	00a13c23          	sd	a0,24(sp)
    80000180:	fff50d9b          	addiw	s11,a0,-1
    80000184:	0fbc5e63          	bge	s8,s11,80000280 <quick_sort+0x194>
    80000188:	000d8613          	mv	a2,s11
    8000018c:	000c0593          	mv	a1,s8
    80000190:	00040513          	mv	a0,s0
    80000194:	e95ff0ef          	jal	ra,80000028 <partition>
    80000198:	02a13023          	sd	a0,32(sp)
    8000019c:	fff5099b          	addiw	s3,a0,-1
    800001a0:	0d3c5a63          	bge	s8,s3,80000274 <quick_sort+0x188>
    800001a4:	00098613          	mv	a2,s3
    800001a8:	000c0593          	mv	a1,s8
    800001ac:	00040513          	mv	a0,s0
    800001b0:	e79ff0ef          	jal	ra,80000028 <partition>
    800001b4:	fff5091b          	addiw	s2,a0,-1
    800001b8:	00050493          	mv	s1,a0
    800001bc:	0b2c5863          	bge	s8,s2,8000026c <quick_sort+0x180>
    800001c0:	00090613          	mv	a2,s2
    800001c4:	000c0593          	mv	a1,s8
    800001c8:	00040513          	mv	a0,s0
    800001cc:	e5dff0ef          	jal	ra,80000028 <partition>
    800001d0:	fff50b9b          	addiw	s7,a0,-1
    800001d4:	00050a13          	mv	s4,a0
    800001d8:	097c5663          	bge	s8,s7,80000264 <quick_sort+0x178>
    800001dc:	000b8613          	mv	a2,s7
    800001e0:	000c0593          	mv	a1,s8
    800001e4:	00040513          	mv	a0,s0
    800001e8:	e41ff0ef          	jal	ra,80000028 <partition>
    800001ec:	02a13423          	sd	a0,40(sp)
    800001f0:	fff50a9b          	addiw	s5,a0,-1
    800001f4:	075c5263          	bge	s8,s5,80000258 <quick_sort+0x16c>
    800001f8:	000a8613          	mv	a2,s5
    800001fc:	000c0593          	mv	a1,s8
    80000200:	00040513          	mv	a0,s0
    80000204:	e25ff0ef          	jal	ra,80000028 <partition>
    80000208:	fff5069b          	addiw	a3,a0,-1
    8000020c:	00050713          	mv	a4,a0
    80000210:	04dc5063          	bge	s8,a3,80000250 <quick_sort+0x164>
    80000214:	00068613          	mv	a2,a3
    80000218:	000c0593          	mv	a1,s8
    8000021c:	00040513          	mv	a0,s0
    80000220:	02e13c23          	sd	a4,56(sp)
    80000224:	02d13823          	sd	a3,48(sp)
    80000228:	e01ff0ef          	jal	ra,80000028 <partition>
    8000022c:	00050813          	mv	a6,a0
    80000230:	000c0593          	mv	a1,s8
    80000234:	fff5061b          	addiw	a2,a0,-1
    80000238:	00040513          	mv	a0,s0
    8000023c:	00180c1b          	addiw	s8,a6,1
    80000240:	eadff0ef          	jal	ra,800000ec <quick_sort>
    80000244:	03013683          	ld	a3,48(sp)
    80000248:	03813703          	ld	a4,56(sp)
    8000024c:	fcdc44e3          	blt	s8,a3,80000214 <quick_sort+0x128>
    80000250:	00170c1b          	addiw	s8,a4,1
    80000254:	fb5c42e3          	blt	s8,s5,800001f8 <quick_sort+0x10c>
    80000258:	02813783          	ld	a5,40(sp)
    8000025c:	00178c1b          	addiw	s8,a5,1
    80000260:	f77c4ee3          	blt	s8,s7,800001dc <quick_sort+0xf0>
    80000264:	001a0c1b          	addiw	s8,s4,1
    80000268:	f52c4ce3          	blt	s8,s2,800001c0 <quick_sort+0xd4>
    8000026c:	00148c1b          	addiw	s8,s1,1
    80000270:	f33c4ae3          	blt	s8,s3,800001a4 <quick_sort+0xb8>
    80000274:	02013783          	ld	a5,32(sp)
    80000278:	00178c1b          	addiw	s8,a5,1
    8000027c:	f1bc46e3          	blt	s8,s11,80000188 <quick_sort+0x9c>
    80000280:	01813783          	ld	a5,24(sp)
    80000284:	00178c1b          	addiw	s8,a5,1
    80000288:	efac42e3          	blt	s8,s10,8000016c <quick_sort+0x80>
    8000028c:	01013783          	ld	a5,16(sp)
    80000290:	00178c1b          	addiw	s8,a5,1
    80000294:	eb9c4ee3          	blt	s8,s9,80000150 <quick_sort+0x64>
    80000298:	00813783          	ld	a5,8(sp)
    8000029c:	00178c1b          	addiw	s8,a5,1
    800002a0:	e96c4ae3          	blt	s8,s6,80000134 <quick_sort+0x48>
    800002a4:	0a813083          	ld	ra,168(sp)
    800002a8:	0a013403          	ld	s0,160(sp)
    800002ac:	09813483          	ld	s1,152(sp)
    800002b0:	09013903          	ld	s2,144(sp)
    800002b4:	08813983          	ld	s3,136(sp)
    800002b8:	08013a03          	ld	s4,128(sp)
    800002bc:	07813a83          	ld	s5,120(sp)
    800002c0:	07013b03          	ld	s6,112(sp)
    800002c4:	06813b83          	ld	s7,104(sp)
    800002c8:	06013c03          	ld	s8,96(sp)
    800002cc:	05813c83          	ld	s9,88(sp)
    800002d0:	05013d03          	ld	s10,80(sp)
    800002d4:	04813d83          	ld	s11,72(sp)
    800002d8:	0b010113          	addi	sp,sp,176
    800002dc:	00008067          	ret
    800002e0:	00008067          	ret

00000000800002e4 <main>:
    800002e4:	fd010113          	addi	sp,sp,-48
    800002e8:	00000517          	auipc	a0,0x0
    800002ec:	0f050513          	addi	a0,a0,240 # 800003d8 <a>
    800002f0:	00913c23          	sd	s1,24(sp)
    800002f4:	01300613          	li	a2,19
    800002f8:	00050493          	mv	s1,a0
    800002fc:	00000593          	li	a1,0
    80000300:	02813023          	sd	s0,32(sp)
    80000304:	01213823          	sd	s2,16(sp)
    80000308:	01313423          	sd	s3,8(sp)
    8000030c:	02113423          	sd	ra,40(sp)
    80000310:	00048913          	mv	s2,s1
    80000314:	dd9ff0ef          	jal	ra,800000ec <quick_sort>
    80000318:	00000413          	li	s0,0
    8000031c:	01400993          	li	s3,20
    80000320:	00092503          	lw	a0,0(s2)
    80000324:	00490913          	addi	s2,s2,4
    80000328:	40850533          	sub	a0,a0,s0
    8000032c:	00153513          	seqz	a0,a0
    80000330:	0014041b          	addiw	s0,s0,1
    80000334:	cddff0ef          	jal	ra,80000010 <check>
    80000338:	ff3414e3          	bne	s0,s3,80000320 <main+0x3c>
    8000033c:	00100513          	li	a0,1
    80000340:	cd1ff0ef          	jal	ra,80000010 <check>
    80000344:	01300613          	li	a2,19
    80000348:	00000593          	li	a1,0
    8000034c:	00000517          	auipc	a0,0x0
    80000350:	08c50513          	addi	a0,a0,140 # 800003d8 <a>
    80000354:	d99ff0ef          	jal	ra,800000ec <quick_sort>
    80000358:	00000413          	li	s0,0
    8000035c:	01400913          	li	s2,20
    80000360:	0004a503          	lw	a0,0(s1)
    80000364:	00448493          	addi	s1,s1,4
    80000368:	40850533          	sub	a0,a0,s0
    8000036c:	00153513          	seqz	a0,a0
    80000370:	0014041b          	addiw	s0,s0,1
    80000374:	c9dff0ef          	jal	ra,80000010 <check>
    80000378:	ff2414e3          	bne	s0,s2,80000360 <main+0x7c>
    8000037c:	00100513          	li	a0,1
    80000380:	c91ff0ef          	jal	ra,80000010 <check>
    80000384:	02813083          	ld	ra,40(sp)
    80000388:	02013403          	ld	s0,32(sp)
    8000038c:	01813483          	ld	s1,24(sp)
    80000390:	01013903          	ld	s2,16(sp)
    80000394:	00813983          	ld	s3,8(sp)
    80000398:	00000513          	li	a0,0
    8000039c:	03010113          	addi	sp,sp,48
    800003a0:	00008067          	ret

00000000800003a4 <halt>:
    800003a4:	00050513          	mv	a0,a0
    800003a8:	00100073          	ebreak
    800003ac:	0000006f          	j	800003ac <halt+0x8>

00000000800003b0 <_trm_init>:
    800003b0:	ff010113          	addi	sp,sp,-16
    800003b4:	00000517          	auipc	a0,0x0
    800003b8:	01c50513          	addi	a0,a0,28 # 800003d0 <_etext>
    800003bc:	00113423          	sd	ra,8(sp)
    800003c0:	f25ff0ef          	jal	ra,800002e4 <main>
    800003c4:	00050513          	mv	a0,a0
    800003c8:	00100073          	ebreak
    800003cc:	0000006f          	j	800003cc <_trm_init+0x1c>
