
/home/lxf/neuopenrtplatform/am-kernels/benchmarks/dhrystone/build/dhrystone-riscv64-nemu.elf:     file format elf64-littleriscv


Disassembly of section .text:

0000000080000000 <_start>:
    80000000:	00000413          	li	s0,0
    80000004:	0000d117          	auipc	sp,0xd
    80000008:	ffc10113          	addi	sp,sp,-4 # 8000d000 <_end>
    8000000c:	5c9000ef          	jal	ra,80000dd4 <_trm_init>

0000000080000010 <Proc_6>:
    80000010:	00200793          	li	a5,2
    80000014:	04f50263          	beq	a0,a5,80000058 <Proc_6+0x48>
    80000018:	00300713          	li	a4,3
    8000001c:	00e5a023          	sw	a4,0(a1)
    80000020:	00100713          	li	a4,1
    80000024:	00e50a63          	beq	a0,a4,80000038 <Proc_6+0x28>
    80000028:	00400713          	li	a4,4
    8000002c:	02e50263          	beq	a0,a4,80000050 <Proc_6+0x40>
    80000030:	00050c63          	beqz	a0,80000048 <Proc_6+0x38>
    80000034:	00008067          	ret
    80000038:	00005717          	auipc	a4,0x5
    8000003c:	cec72703          	lw	a4,-788(a4) # 80004d24 <Int_Glob>
    80000040:	06400793          	li	a5,100
    80000044:	fee7d8e3          	bge	a5,a4,80000034 <Proc_6+0x24>
    80000048:	0005a023          	sw	zero,0(a1)
    8000004c:	00008067          	ret
    80000050:	00f5a023          	sw	a5,0(a1)
    80000054:	00008067          	ret
    80000058:	00100793          	li	a5,1
    8000005c:	00f5a023          	sw	a5,0(a1)
    80000060:	00008067          	ret

0000000080000064 <Proc_1>:
    80000064:	00005717          	auipc	a4,0x5
    80000068:	ccc70713          	addi	a4,a4,-820 # 80004d30 <Ptr_Glob>
    8000006c:	00073783          	ld	a5,0(a4)
    80000070:	fe010113          	addi	sp,sp,-32
    80000074:	00813823          	sd	s0,16(sp)
    80000078:	0007b603          	ld	a2,0(a5)
    8000007c:	00053403          	ld	s0,0(a0)
    80000080:	0307b683          	ld	a3,48(a5)
    80000084:	0087be03          	ld	t3,8(a5)
    80000088:	0107b303          	ld	t1,16(a5)
    8000008c:	0187b883          	ld	a7,24(a5)
    80000090:	0207b803          	ld	a6,32(a5)
    80000094:	0287b583          	ld	a1,40(a5)
    80000098:	00913423          	sd	s1,8(sp)
    8000009c:	00113c23          	sd	ra,24(sp)
    800000a0:	00c43023          	sd	a2,0(s0)
    800000a4:	00053603          	ld	a2,0(a0)
    800000a8:	01c43423          	sd	t3,8(s0)
    800000ac:	00643823          	sd	t1,16(s0)
    800000b0:	02d43823          	sd	a3,48(s0)
    800000b4:	01143c23          	sd	a7,24(s0)
    800000b8:	03043023          	sd	a6,32(s0)
    800000bc:	02b43423          	sd	a1,40(s0)
    800000c0:	00500693          	li	a3,5
    800000c4:	00d52823          	sw	a3,16(a0)
    800000c8:	00c43023          	sd	a2,0(s0)
    800000cc:	0007b483          	ld	s1,0(a5)
    800000d0:	00005797          	auipc	a5,0x5
    800000d4:	c547a783          	lw	a5,-940(a5) # 80004d24 <Int_Glob>
    800000d8:	00c7879b          	addiw	a5,a5,12
    800000dc:	00943023          	sd	s1,0(s0)
    800000e0:	00073703          	ld	a4,0(a4)
    800000e4:	00d42823          	sw	a3,16(s0)
    800000e8:	00f72823          	sw	a5,16(a4)
    800000ec:	00842783          	lw	a5,8(s0)
    800000f0:	04078a63          	beqz	a5,80000144 <Proc_1+0xe0>
    800000f4:	00053783          	ld	a5,0(a0)
    800000f8:	01813083          	ld	ra,24(sp)
    800000fc:	01013403          	ld	s0,16(sp)
    80000100:	0007b883          	ld	a7,0(a5)
    80000104:	0087b803          	ld	a6,8(a5)
    80000108:	0107b583          	ld	a1,16(a5)
    8000010c:	0187b603          	ld	a2,24(a5)
    80000110:	0207b683          	ld	a3,32(a5)
    80000114:	0287b703          	ld	a4,40(a5)
    80000118:	0307b783          	ld	a5,48(a5)
    8000011c:	01153023          	sd	a7,0(a0)
    80000120:	01053423          	sd	a6,8(a0)
    80000124:	00b53823          	sd	a1,16(a0)
    80000128:	00c53c23          	sd	a2,24(a0)
    8000012c:	02d53023          	sd	a3,32(a0)
    80000130:	02e53423          	sd	a4,40(a0)
    80000134:	02f53823          	sd	a5,48(a0)
    80000138:	00813483          	ld	s1,8(sp)
    8000013c:	02010113          	addi	sp,sp,32
    80000140:	00008067          	ret
    80000144:	00c52503          	lw	a0,12(a0)
    80000148:	00600793          	li	a5,6
    8000014c:	00f42823          	sw	a5,16(s0)
    80000150:	00c40593          	addi	a1,s0,12
    80000154:	ebdff0ef          	jal	ra,80000010 <Proc_6>
    80000158:	01200793          	li	a5,18
    8000015c:	00943023          	sd	s1,0(s0)
    80000160:	01813083          	ld	ra,24(sp)
    80000164:	00f42823          	sw	a5,16(s0)
    80000168:	01013403          	ld	s0,16(sp)
    8000016c:	00813483          	ld	s1,8(sp)
    80000170:	02010113          	addi	sp,sp,32
    80000174:	00008067          	ret

0000000080000178 <main>:
    80000178:	f2010113          	addi	sp,sp,-224
    8000017c:	0c113c23          	sd	ra,216(sp)
    80000180:	0c813823          	sd	s0,208(sp)
    80000184:	0c913423          	sd	s1,200(sp)
    80000188:	0d213023          	sd	s2,192(sp)
    8000018c:	0b313c23          	sd	s3,184(sp)
    80000190:	0b413823          	sd	s4,176(sp)
    80000194:	0b513423          	sd	s5,168(sp)
    80000198:	0b613023          	sd	s6,160(sp)
    8000019c:	09713c23          	sd	s7,152(sp)
    800001a0:	09813823          	sd	s8,144(sp)
    800001a4:	09913423          	sd	s9,136(sp)
    800001a8:	09a13023          	sd	s10,128(sp)
    800001ac:	07b13c23          	sd	s11,120(sp)
    800001b0:	08d000ef          	jal	ra,80000a3c <ioe_init>
    800001b4:	00002617          	auipc	a2,0x2
    800001b8:	b6460613          	addi	a2,a2,-1180 # 80001d18 <free_mem>
    800001bc:	00063703          	ld	a4,0(a2)
    800001c0:	00013423          	sd	zero,8(sp)
    800001c4:	00377793          	andi	a5,a4,3
    800001c8:	00078c63          	beqz	a5,800001e0 <main+0x68>
    800001cc:	00170793          	addi	a5,a4,1
    800001d0:	0037f693          	andi	a3,a5,3
    800001d4:	00078713          	mv	a4,a5
    800001d8:	00178793          	addi	a5,a5,1
    800001dc:	fe069ae3          	bnez	a3,800001d0 <main+0x58>
    800001e0:	00005797          	auipc	a5,0x5
    800001e4:	b4878793          	addi	a5,a5,-1208 # 80004d28 <Next_Ptr_Glob>
    800001e8:	00e7b023          	sd	a4,0(a5)
    800001ec:	00377793          	andi	a5,a4,3
    800001f0:	03870513          	addi	a0,a4,56
    800001f4:	00078c63          	beqz	a5,8000020c <main+0x94>
    800001f8:	03970793          	addi	a5,a4,57
    800001fc:	0037f693          	andi	a3,a5,3
    80000200:	00078513          	mv	a0,a5
    80000204:	00178793          	addi	a5,a5,1
    80000208:	fe069ae3          	bnez	a3,800001fc <main+0x84>
    8000020c:	00005797          	auipc	a5,0x5
    80000210:	b2478793          	addi	a5,a5,-1244 # 80004d30 <Ptr_Glob>
    80000214:	00a7b023          	sd	a0,0(a5)
    80000218:	00100793          	li	a5,1
    8000021c:	02179793          	slli	a5,a5,0x21
    80000220:	00f53423          	sd	a5,8(a0)
    80000224:	02800793          	li	a5,40
    80000228:	03850693          	addi	a3,a0,56
    8000022c:	00e53023          	sd	a4,0(a0)
    80000230:	00f52823          	sw	a5,16(a0)
    80000234:	00001597          	auipc	a1,0x1
    80000238:	41458593          	addi	a1,a1,1044 # 80001648 <_etext+0x10>
    8000023c:	01450513          	addi	a0,a0,20
    80000240:	00d63023          	sd	a3,0(a2)
    80000244:	22c010ef          	jal	ra,80001470 <strcpy>
    80000248:	00001597          	auipc	a1,0x1
    8000024c:	42058593          	addi	a1,a1,1056 # 80001668 <_etext+0x30>
    80000250:	03010513          	addi	a0,sp,48
    80000254:	21c010ef          	jal	ra,80001470 <strcpy>
    80000258:	00a00793          	li	a5,10
    8000025c:	00002997          	auipc	s3,0x2
    80000260:	2cc98993          	addi	s3,s3,716 # 80002528 <Arr_2_Glob>
    80000264:	64f9ae23          	sw	a5,1628(s3)
    80000268:	00001597          	auipc	a1,0x1
    8000026c:	42058593          	addi	a1,a1,1056 # 80001688 <_etext+0x50>
    80000270:	00001517          	auipc	a0,0x1
    80000274:	42850513          	addi	a0,a0,1064 # 80001698 <_etext+0x60>
    80000278:	0c0010ef          	jal	ra,80001338 <printf>
    8000027c:	00200593          	li	a1,2
    80000280:	00001517          	auipc	a0,0x1
    80000284:	44050513          	addi	a0,a0,1088 # 800016c0 <_etext+0x88>
    80000288:	00005797          	auipc	a5,0x5
    8000028c:	a807a823          	sw	zero,-1392(a5) # 80004d18 <Done>
    80000290:	0a8010ef          	jal	ra,80001338 <printf>
    80000294:	05010593          	addi	a1,sp,80
    80000298:	00600513          	li	a0,6
    8000029c:	7f4000ef          	jal	ra,80000a90 <ioe_read>
    800002a0:	05013503          	ld	a0,80(sp)
    800002a4:	3e800593          	li	a1,1000
    800002a8:	00100493          	li	s1,1
    800002ac:	2d4010ef          	jal	ra,80001580 <__hidden___udivdi3>
    800002b0:	00700713          	li	a4,7
    800002b4:	02051793          	slli	a5,a0,0x20
    800002b8:	0207d793          	srli	a5,a5,0x20
    800002bc:	02071613          	slli	a2,a4,0x20
    800002c0:	00005697          	auipc	a3,0x5
    800002c4:	a5068693          	addi	a3,a3,-1456 # 80004d10 <Begin_Time>
    800002c8:	00800713          	li	a4,8
    800002cc:	02071713          	slli	a4,a4,0x20
    800002d0:	00f6b023          	sd	a5,0(a3)
    800002d4:	00760793          	addi	a5,a2,7
    800002d8:	00f13823          	sd	a5,16(sp)
    800002dc:	00870793          	addi	a5,a4,8
    800002e0:	00005417          	auipc	s0,0x5
    800002e4:	a3d40413          	addi	s0,s0,-1475 # 80004d1d <Ch_1_Glob>
    800002e8:	00005b97          	auipc	s7,0x5
    800002ec:	a38b8b93          	addi	s7,s7,-1480 # 80004d20 <Bool_Glob>
    800002f0:	00005d17          	auipc	s10,0x5
    800002f4:	a2cd0d13          	addi	s10,s10,-1492 # 80004d1c <Ch_2_Glob>
    800002f8:	00005b17          	auipc	s6,0x5
    800002fc:	940b0b13          	addi	s6,s6,-1728 # 80004c38 <Arr_1_Glob>
    80000300:	00005917          	auipc	s2,0x5
    80000304:	a2490913          	addi	s2,s2,-1500 # 80004d24 <Int_Glob>
    80000308:	04100c13          	li	s8,65
    8000030c:	00100a13          	li	s4,1
    80000310:	00f13c23          	sd	a5,24(sp)
    80000314:	04200793          	li	a5,66
    80000318:	00001597          	auipc	a1,0x1
    8000031c:	3d058593          	addi	a1,a1,976 # 800016e8 <_etext+0xb0>
    80000320:	05010513          	addi	a0,sp,80
    80000324:	00fd0023          	sb	a5,0(s10)
    80000328:	01840023          	sb	s8,0(s0)
    8000032c:	014ba023          	sw	s4,0(s7)
    80000330:	140010ef          	jal	ra,80001470 <strcpy>
    80000334:	03214783          	lbu	a5,50(sp)
    80000338:	05314703          	lbu	a4,83(sp)
    8000033c:	00000613          	li	a2,0
    80000340:	12e78463          	beq	a5,a4,80000468 <main+0x2f0>
    80000344:	00060663          	beqz	a2,80000350 <main+0x1d8>
    80000348:	00813783          	ld	a5,8(sp)
    8000034c:	00f40023          	sb	a5,0(s0)
    80000350:	05010593          	addi	a1,sp,80
    80000354:	03010513          	addi	a0,sp,48
    80000358:	154010ef          	jal	ra,800014ac <strcmp>
    8000035c:	00050713          	mv	a4,a0
    80000360:	00172713          	slti	a4,a4,1
    80000364:	00eba023          	sw	a4,0(s7)
    80000368:	01013703          	ld	a4,16(sp)
    8000036c:	65c9a783          	lw	a5,1628(s3)
    80000370:	00005697          	auipc	a3,0x5
    80000374:	9c068693          	addi	a3,a3,-1600 # 80004d30 <Ptr_Glob>
    80000378:	02eb3023          	sd	a4,32(s6)
    8000037c:	00800713          	li	a4,8
    80000380:	08eb2c23          	sw	a4,152(s6)
    80000384:	01813703          	ld	a4,24(sp)
    80000388:	0017879b          	addiw	a5,a5,1
    8000038c:	0006b503          	ld	a0,0(a3)
    80000390:	66e9b023          	sd	a4,1632(s3)
    80000394:	64f9ae23          	sw	a5,1628(s3)
    80000398:	00700713          	li	a4,7
    8000039c:	00003797          	auipc	a5,0x3
    800003a0:	18c78793          	addi	a5,a5,396 # 80003528 <Arr_2_Glob+0x1000>
    800003a4:	60e7a023          	sw	a4,1536(a5)
    800003a8:	00500793          	li	a5,5
    800003ac:	00f92023          	sw	a5,0(s2)
    800003b0:	cb5ff0ef          	jal	ra,80000064 <Proc_1>
    800003b4:	000d4703          	lbu	a4,0(s10)
    800003b8:	04000793          	li	a5,64
    800003bc:	5ce7fa63          	bgeu	a5,a4,80000990 <main+0x818>
    800003c0:	00100d93          	li	s11,1
    800003c4:	04100a93          	li	s5,65
    800003c8:	00300593          	li	a1,3
    800003cc:	00000793          	li	a5,0
    800003d0:	04300c93          	li	s9,67
    800003d4:	03b78463          	beq	a5,s11,800003fc <main+0x284>
    800003d8:	000d4783          	lbu	a5,0(s10)
    800003dc:	001a8a9b          	addiw	s5,s5,1
    800003e0:	0ffafa93          	zext.b	s5,s5
    800003e4:	0557e263          	bltu	a5,s5,80000428 <main+0x2b0>
    800003e8:	00000793          	li	a5,0
    800003ec:	ff9a94e3          	bne	s5,s9,800003d4 <main+0x25c>
    800003f0:	01540023          	sb	s5,0(s0)
    800003f4:	00100793          	li	a5,1
    800003f8:	ffb790e3          	bne	a5,s11,800003d8 <main+0x260>
    800003fc:	00001597          	auipc	a1,0x1
    80000400:	30c58593          	addi	a1,a1,780 # 80001708 <_etext+0xd0>
    80000404:	05010513          	addi	a0,sp,80
    80000408:	068010ef          	jal	ra,80001470 <strcpy>
    8000040c:	000d4783          	lbu	a5,0(s10)
    80000410:	001a8a9b          	addiw	s5,s5,1
    80000414:	00992023          	sw	s1,0(s2)
    80000418:	0ffafa93          	zext.b	s5,s5
    8000041c:	00000d93          	li	s11,0
    80000420:	00048593          	mv	a1,s1
    80000424:	fd57f2e3          	bgeu	a5,s5,800003e8 <main+0x270>
    80000428:	00159a9b          	slliw	s5,a1,0x1
    8000042c:	00ba853b          	addw	a0,s5,a1
    80000430:	00050a93          	mv	s5,a0
    80000434:	00700593          	li	a1,7
    80000438:	140010ef          	jal	ra,80001578 <__divdi3>
    8000043c:	ff9a8a9b          	addiw	s5,s5,-7
    80000440:	003a979b          	slliw	a5,s5,0x3
    80000444:	415787bb          	subw	a5,a5,s5
    80000448:	40a787bb          	subw	a5,a5,a0
    8000044c:	00050a9b          	sext.w	s5,a0
    80000450:	00078c93          	mv	s9,a5
    80000454:	00044783          	lbu	a5,0(s0)
    80000458:	01878e63          	beq	a5,s8,80000474 <main+0x2fc>
    8000045c:	03449463          	bne	s1,s4,80000484 <main+0x30c>
    80000460:	00200493          	li	s1,2
    80000464:	eb1ff06f          	j	80000314 <main+0x19c>
    80000468:	00100613          	li	a2,1
    8000046c:	00f13423          	sd	a5,8(sp)
    80000470:	ed1ff06f          	j	80000340 <main+0x1c8>
    80000474:	00092783          	lw	a5,0(s2)
    80000478:	009a8a9b          	addiw	s5,s5,9
    8000047c:	40fa8abb          	subw	s5,s5,a5
    80000480:	ff4480e3          	beq	s1,s4,80000460 <main+0x2e8>
    80000484:	02810593          	addi	a1,sp,40
    80000488:	00600513          	li	a0,6
    8000048c:	604000ef          	jal	ra,80000a90 <ioe_read>
    80000490:	02813503          	ld	a0,40(sp)
    80000494:	3e800593          	li	a1,1000
    80000498:	00005497          	auipc	s1,0x5
    8000049c:	86848493          	addi	s1,s1,-1944 # 80004d00 <User_Time>
    800004a0:	0e0010ef          	jal	ra,80001580 <__hidden___udivdi3>
    800004a4:	00005797          	auipc	a5,0x5
    800004a8:	86c78793          	addi	a5,a5,-1940 # 80004d10 <Begin_Time>
    800004ac:	0007b783          	ld	a5,0(a5)
    800004b0:	02051513          	slli	a0,a0,0x20
    800004b4:	02055513          	srli	a0,a0,0x20
    800004b8:	40f507b3          	sub	a5,a0,a5
    800004bc:	00092583          	lw	a1,0(s2)
    800004c0:	00f4b023          	sd	a5,0(s1)
    800004c4:	00005797          	auipc	a5,0x5
    800004c8:	8547aa23          	sw	s4,-1964(a5) # 80004d18 <Done>
    800004cc:	00005617          	auipc	a2,0x5
    800004d0:	82a63e23          	sd	a0,-1988(a2) # 80004d08 <End_Time>
    800004d4:	00500793          	li	a5,5
    800004d8:	02f58463          	beq	a1,a5,80000500 <main+0x388>
    800004dc:	00001517          	auipc	a0,0x1
    800004e0:	24c50513          	addi	a0,a0,588 # 80001728 <_etext+0xf0>
    800004e4:	00002797          	auipc	a5,0x2
    800004e8:	8207a623          	sw	zero,-2004(a5) # 80001d10 <pass>
    800004ec:	64d000ef          	jal	ra,80001338 <printf>
    800004f0:	00500593          	li	a1,5
    800004f4:	00001517          	auipc	a0,0x1
    800004f8:	25450513          	addi	a0,a0,596 # 80001748 <_etext+0x110>
    800004fc:	63d000ef          	jal	ra,80001338 <printf>
    80000500:	000ba583          	lw	a1,0(s7)
    80000504:	00100793          	li	a5,1
    80000508:	02f58463          	beq	a1,a5,80000530 <main+0x3b8>
    8000050c:	00001517          	auipc	a0,0x1
    80000510:	25c50513          	addi	a0,a0,604 # 80001768 <_etext+0x130>
    80000514:	00001797          	auipc	a5,0x1
    80000518:	7e07ae23          	sw	zero,2044(a5) # 80001d10 <pass>
    8000051c:	61d000ef          	jal	ra,80001338 <printf>
    80000520:	00100593          	li	a1,1
    80000524:	00001517          	auipc	a0,0x1
    80000528:	22450513          	addi	a0,a0,548 # 80001748 <_etext+0x110>
    8000052c:	60d000ef          	jal	ra,80001338 <printf>
    80000530:	00044583          	lbu	a1,0(s0)
    80000534:	04100793          	li	a5,65
    80000538:	02f58463          	beq	a1,a5,80000560 <main+0x3e8>
    8000053c:	00001517          	auipc	a0,0x1
    80000540:	24c50513          	addi	a0,a0,588 # 80001788 <_etext+0x150>
    80000544:	00001797          	auipc	a5,0x1
    80000548:	7c07a623          	sw	zero,1996(a5) # 80001d10 <pass>
    8000054c:	5ed000ef          	jal	ra,80001338 <printf>
    80000550:	04100593          	li	a1,65
    80000554:	00001517          	auipc	a0,0x1
    80000558:	25450513          	addi	a0,a0,596 # 800017a8 <_etext+0x170>
    8000055c:	5dd000ef          	jal	ra,80001338 <printf>
    80000560:	000d4583          	lbu	a1,0(s10)
    80000564:	04200793          	li	a5,66
    80000568:	02f58463          	beq	a1,a5,80000590 <main+0x418>
    8000056c:	00001517          	auipc	a0,0x1
    80000570:	25c50513          	addi	a0,a0,604 # 800017c8 <_etext+0x190>
    80000574:	00001797          	auipc	a5,0x1
    80000578:	7807ae23          	sw	zero,1948(a5) # 80001d10 <pass>
    8000057c:	5bd000ef          	jal	ra,80001338 <printf>
    80000580:	04200593          	li	a1,66
    80000584:	00001517          	auipc	a0,0x1
    80000588:	22450513          	addi	a0,a0,548 # 800017a8 <_etext+0x170>
    8000058c:	5ad000ef          	jal	ra,80001338 <printf>
    80000590:	020b2583          	lw	a1,32(s6)
    80000594:	00700793          	li	a5,7
    80000598:	02f58463          	beq	a1,a5,800005c0 <main+0x448>
    8000059c:	00001517          	auipc	a0,0x1
    800005a0:	24c50513          	addi	a0,a0,588 # 800017e8 <_etext+0x1b0>
    800005a4:	00001797          	auipc	a5,0x1
    800005a8:	7607a623          	sw	zero,1900(a5) # 80001d10 <pass>
    800005ac:	58d000ef          	jal	ra,80001338 <printf>
    800005b0:	00700593          	li	a1,7
    800005b4:	00001517          	auipc	a0,0x1
    800005b8:	19450513          	addi	a0,a0,404 # 80001748 <_etext+0x110>
    800005bc:	57d000ef          	jal	ra,80001338 <printf>
    800005c0:	65c9a583          	lw	a1,1628(s3)
    800005c4:	00c00793          	li	a5,12
    800005c8:	02f58263          	beq	a1,a5,800005ec <main+0x474>
    800005cc:	00001517          	auipc	a0,0x1
    800005d0:	23c50513          	addi	a0,a0,572 # 80001808 <_etext+0x1d0>
    800005d4:	00001797          	auipc	a5,0x1
    800005d8:	7207ae23          	sw	zero,1852(a5) # 80001d10 <pass>
    800005dc:	55d000ef          	jal	ra,80001338 <printf>
    800005e0:	00001517          	auipc	a0,0x1
    800005e4:	24850513          	addi	a0,a0,584 # 80001828 <_etext+0x1f0>
    800005e8:	551000ef          	jal	ra,80001338 <printf>
    800005ec:	00004797          	auipc	a5,0x4
    800005f0:	74478793          	addi	a5,a5,1860 # 80004d30 <Ptr_Glob>
    800005f4:	0007b783          	ld	a5,0(a5)
    800005f8:	0087a583          	lw	a1,8(a5)
    800005fc:	02058463          	beqz	a1,80000624 <main+0x4ac>
    80000600:	00001517          	auipc	a0,0x1
    80000604:	25850513          	addi	a0,a0,600 # 80001858 <_etext+0x220>
    80000608:	00001797          	auipc	a5,0x1
    8000060c:	7007a423          	sw	zero,1800(a5) # 80001d10 <pass>
    80000610:	529000ef          	jal	ra,80001338 <printf>
    80000614:	00000593          	li	a1,0
    80000618:	00001517          	auipc	a0,0x1
    8000061c:	13050513          	addi	a0,a0,304 # 80001748 <_etext+0x110>
    80000620:	519000ef          	jal	ra,80001338 <printf>
    80000624:	00004797          	auipc	a5,0x4
    80000628:	70c78793          	addi	a5,a5,1804 # 80004d30 <Ptr_Glob>
    8000062c:	0007b683          	ld	a3,0(a5)
    80000630:	00200793          	li	a5,2
    80000634:	00c6a583          	lw	a1,12(a3)
    80000638:	02f58463          	beq	a1,a5,80000660 <main+0x4e8>
    8000063c:	00001517          	auipc	a0,0x1
    80000640:	24450513          	addi	a0,a0,580 # 80001880 <_etext+0x248>
    80000644:	00001797          	auipc	a5,0x1
    80000648:	6c07a623          	sw	zero,1740(a5) # 80001d10 <pass>
    8000064c:	4ed000ef          	jal	ra,80001338 <printf>
    80000650:	00200593          	li	a1,2
    80000654:	00001517          	auipc	a0,0x1
    80000658:	0f450513          	addi	a0,a0,244 # 80001748 <_etext+0x110>
    8000065c:	4dd000ef          	jal	ra,80001338 <printf>
    80000660:	00004797          	auipc	a5,0x4
    80000664:	6d078793          	addi	a5,a5,1744 # 80004d30 <Ptr_Glob>
    80000668:	0007b683          	ld	a3,0(a5)
    8000066c:	01100793          	li	a5,17
    80000670:	0106a583          	lw	a1,16(a3)
    80000674:	02f58463          	beq	a1,a5,8000069c <main+0x524>
    80000678:	00001517          	auipc	a0,0x1
    8000067c:	23050513          	addi	a0,a0,560 # 800018a8 <_etext+0x270>
    80000680:	00001797          	auipc	a5,0x1
    80000684:	6807a823          	sw	zero,1680(a5) # 80001d10 <pass>
    80000688:	4b1000ef          	jal	ra,80001338 <printf>
    8000068c:	01100593          	li	a1,17
    80000690:	00001517          	auipc	a0,0x1
    80000694:	0b850513          	addi	a0,a0,184 # 80001748 <_etext+0x110>
    80000698:	4a1000ef          	jal	ra,80001338 <printf>
    8000069c:	00004417          	auipc	s0,0x4
    800006a0:	69440413          	addi	s0,s0,1684 # 80004d30 <Ptr_Glob>
    800006a4:	00043503          	ld	a0,0(s0)
    800006a8:	00001597          	auipc	a1,0x1
    800006ac:	fa058593          	addi	a1,a1,-96 # 80001648 <_etext+0x10>
    800006b0:	01450513          	addi	a0,a0,20
    800006b4:	5f9000ef          	jal	ra,800014ac <strcmp>
    800006b8:	02050663          	beqz	a0,800006e4 <main+0x56c>
    800006bc:	00043583          	ld	a1,0(s0)
    800006c0:	00001517          	auipc	a0,0x1
    800006c4:	21050513          	addi	a0,a0,528 # 800018d0 <_etext+0x298>
    800006c8:	00001797          	auipc	a5,0x1
    800006cc:	6407a423          	sw	zero,1608(a5) # 80001d10 <pass>
    800006d0:	01458593          	addi	a1,a1,20
    800006d4:	465000ef          	jal	ra,80001338 <printf>
    800006d8:	00001517          	auipc	a0,0x1
    800006dc:	22050513          	addi	a0,a0,544 # 800018f8 <_etext+0x2c0>
    800006e0:	459000ef          	jal	ra,80001338 <printf>
    800006e4:	00004797          	auipc	a5,0x4
    800006e8:	64478793          	addi	a5,a5,1604 # 80004d28 <Next_Ptr_Glob>
    800006ec:	0007b783          	ld	a5,0(a5)
    800006f0:	0087a583          	lw	a1,8(a5)
    800006f4:	02058463          	beqz	a1,8000071c <main+0x5a4>
    800006f8:	00001517          	auipc	a0,0x1
    800006fc:	23850513          	addi	a0,a0,568 # 80001930 <_etext+0x2f8>
    80000700:	00001797          	auipc	a5,0x1
    80000704:	6007a823          	sw	zero,1552(a5) # 80001d10 <pass>
    80000708:	431000ef          	jal	ra,80001338 <printf>
    8000070c:	00000593          	li	a1,0
    80000710:	00001517          	auipc	a0,0x1
    80000714:	03850513          	addi	a0,a0,56 # 80001748 <_etext+0x110>
    80000718:	421000ef          	jal	ra,80001338 <printf>
    8000071c:	00004797          	auipc	a5,0x4
    80000720:	60c78793          	addi	a5,a5,1548 # 80004d28 <Next_Ptr_Glob>
    80000724:	0007b683          	ld	a3,0(a5)
    80000728:	00100793          	li	a5,1
    8000072c:	00c6a583          	lw	a1,12(a3)
    80000730:	02f58463          	beq	a1,a5,80000758 <main+0x5e0>
    80000734:	00001517          	auipc	a0,0x1
    80000738:	22450513          	addi	a0,a0,548 # 80001958 <_etext+0x320>
    8000073c:	00001797          	auipc	a5,0x1
    80000740:	5c07aa23          	sw	zero,1492(a5) # 80001d10 <pass>
    80000744:	3f5000ef          	jal	ra,80001338 <printf>
    80000748:	00100593          	li	a1,1
    8000074c:	00001517          	auipc	a0,0x1
    80000750:	ffc50513          	addi	a0,a0,-4 # 80001748 <_etext+0x110>
    80000754:	3e5000ef          	jal	ra,80001338 <printf>
    80000758:	00004797          	auipc	a5,0x4
    8000075c:	5d078793          	addi	a5,a5,1488 # 80004d28 <Next_Ptr_Glob>
    80000760:	0007b683          	ld	a3,0(a5)
    80000764:	01200793          	li	a5,18
    80000768:	0106a583          	lw	a1,16(a3)
    8000076c:	02f58463          	beq	a1,a5,80000794 <main+0x61c>
    80000770:	00001517          	auipc	a0,0x1
    80000774:	21050513          	addi	a0,a0,528 # 80001980 <_etext+0x348>
    80000778:	00001797          	auipc	a5,0x1
    8000077c:	5807ac23          	sw	zero,1432(a5) # 80001d10 <pass>
    80000780:	3b9000ef          	jal	ra,80001338 <printf>
    80000784:	01200593          	li	a1,18
    80000788:	00001517          	auipc	a0,0x1
    8000078c:	fc050513          	addi	a0,a0,-64 # 80001748 <_etext+0x110>
    80000790:	3a9000ef          	jal	ra,80001338 <printf>
    80000794:	00004417          	auipc	s0,0x4
    80000798:	59440413          	addi	s0,s0,1428 # 80004d28 <Next_Ptr_Glob>
    8000079c:	00043503          	ld	a0,0(s0)
    800007a0:	00001597          	auipc	a1,0x1
    800007a4:	ea858593          	addi	a1,a1,-344 # 80001648 <_etext+0x10>
    800007a8:	01450513          	addi	a0,a0,20
    800007ac:	501000ef          	jal	ra,800014ac <strcmp>
    800007b0:	02050663          	beqz	a0,800007dc <main+0x664>
    800007b4:	00043583          	ld	a1,0(s0)
    800007b8:	00001517          	auipc	a0,0x1
    800007bc:	1f050513          	addi	a0,a0,496 # 800019a8 <_etext+0x370>
    800007c0:	00001797          	auipc	a5,0x1
    800007c4:	5407a823          	sw	zero,1360(a5) # 80001d10 <pass>
    800007c8:	01458593          	addi	a1,a1,20
    800007cc:	36d000ef          	jal	ra,80001338 <printf>
    800007d0:	00001517          	auipc	a0,0x1
    800007d4:	12850513          	addi	a0,a0,296 # 800018f8 <_etext+0x2c0>
    800007d8:	361000ef          	jal	ra,80001338 <printf>
    800007dc:	00500793          	li	a5,5
    800007e0:	02fa8663          	beq	s5,a5,8000080c <main+0x694>
    800007e4:	000a8593          	mv	a1,s5
    800007e8:	00001517          	auipc	a0,0x1
    800007ec:	1e850513          	addi	a0,a0,488 # 800019d0 <_etext+0x398>
    800007f0:	00001797          	auipc	a5,0x1
    800007f4:	5207a023          	sw	zero,1312(a5) # 80001d10 <pass>
    800007f8:	341000ef          	jal	ra,80001338 <printf>
    800007fc:	00500593          	li	a1,5
    80000800:	00001517          	auipc	a0,0x1
    80000804:	f4850513          	addi	a0,a0,-184 # 80001748 <_etext+0x110>
    80000808:	331000ef          	jal	ra,80001338 <printf>
    8000080c:	00d00793          	li	a5,13
    80000810:	02fc8663          	beq	s9,a5,8000083c <main+0x6c4>
    80000814:	000c8593          	mv	a1,s9
    80000818:	00001517          	auipc	a0,0x1
    8000081c:	1d850513          	addi	a0,a0,472 # 800019f0 <_etext+0x3b8>
    80000820:	00001797          	auipc	a5,0x1
    80000824:	4e07a823          	sw	zero,1264(a5) # 80001d10 <pass>
    80000828:	311000ef          	jal	ra,80001338 <printf>
    8000082c:	00d00593          	li	a1,13
    80000830:	00001517          	auipc	a0,0x1
    80000834:	f1850513          	addi	a0,a0,-232 # 80001748 <_etext+0x110>
    80000838:	301000ef          	jal	ra,80001338 <printf>
    8000083c:	020d9663          	bnez	s11,80000868 <main+0x6f0>
    80000840:	00000593          	li	a1,0
    80000844:	00001517          	auipc	a0,0x1
    80000848:	1cc50513          	addi	a0,a0,460 # 80001a10 <_etext+0x3d8>
    8000084c:	00001797          	auipc	a5,0x1
    80000850:	4c07a223          	sw	zero,1220(a5) # 80001d10 <pass>
    80000854:	2e5000ef          	jal	ra,80001338 <printf>
    80000858:	00100593          	li	a1,1
    8000085c:	00001517          	auipc	a0,0x1
    80000860:	eec50513          	addi	a0,a0,-276 # 80001748 <_etext+0x110>
    80000864:	2d5000ef          	jal	ra,80001338 <printf>
    80000868:	00001597          	auipc	a1,0x1
    8000086c:	e0058593          	addi	a1,a1,-512 # 80001668 <_etext+0x30>
    80000870:	03010513          	addi	a0,sp,48
    80000874:	439000ef          	jal	ra,800014ac <strcmp>
    80000878:	02050463          	beqz	a0,800008a0 <main+0x728>
    8000087c:	03010593          	addi	a1,sp,48
    80000880:	00001517          	auipc	a0,0x1
    80000884:	1b050513          	addi	a0,a0,432 # 80001a30 <_etext+0x3f8>
    80000888:	00001797          	auipc	a5,0x1
    8000088c:	4807a423          	sw	zero,1160(a5) # 80001d10 <pass>
    80000890:	2a9000ef          	jal	ra,80001338 <printf>
    80000894:	00001517          	auipc	a0,0x1
    80000898:	1bc50513          	addi	a0,a0,444 # 80001a50 <_etext+0x418>
    8000089c:	29d000ef          	jal	ra,80001338 <printf>
    800008a0:	00001597          	auipc	a1,0x1
    800008a4:	e4858593          	addi	a1,a1,-440 # 800016e8 <_etext+0xb0>
    800008a8:	05010513          	addi	a0,sp,80
    800008ac:	401000ef          	jal	ra,800014ac <strcmp>
    800008b0:	02050463          	beqz	a0,800008d8 <main+0x760>
    800008b4:	05010593          	addi	a1,sp,80
    800008b8:	00001517          	auipc	a0,0x1
    800008bc:	1d050513          	addi	a0,a0,464 # 80001a88 <_etext+0x450>
    800008c0:	00001797          	auipc	a5,0x1
    800008c4:	4407a823          	sw	zero,1104(a5) # 80001d10 <pass>
    800008c8:	271000ef          	jal	ra,80001338 <printf>
    800008cc:	00001517          	auipc	a0,0x1
    800008d0:	1dc50513          	addi	a0,a0,476 # 80001aa8 <_etext+0x470>
    800008d4:	265000ef          	jal	ra,80001338 <printf>
    800008d8:	0004a583          	lw	a1,0(s1)
    800008dc:	00001517          	auipc	a0,0x1
    800008e0:	20450513          	addi	a0,a0,516 # 80001ae0 <_etext+0x4a8>
    800008e4:	00001417          	auipc	s0,0x1
    800008e8:	d5c40413          	addi	s0,s0,-676 # 80001640 <_etext+0x8>
    800008ec:	24d000ef          	jal	ra,80001338 <printf>
    800008f0:	00001517          	auipc	a0,0x1
    800008f4:	20850513          	addi	a0,a0,520 # 80001af8 <_etext+0x4c0>
    800008f8:	241000ef          	jal	ra,80001338 <printf>
    800008fc:	00001797          	auipc	a5,0x1
    80000900:	4147a783          	lw	a5,1044(a5) # 80001d10 <pass>
    80000904:	00078663          	beqz	a5,80000910 <main+0x798>
    80000908:	00001417          	auipc	s0,0x1
    8000090c:	d3040413          	addi	s0,s0,-720 # 80001638 <_etext>
    80000910:	0004a583          	lw	a1,0(s1)
    80000914:	000d7537          	lui	a0,0xd7
    80000918:	10450513          	addi	a0,a0,260 # d7104 <_entry_offset+0xd7104>
    8000091c:	45d000ef          	jal	ra,80001578 <__divdi3>
    80000920:	0003d5b7          	lui	a1,0x3d
    80000924:	09058593          	addi	a1,a1,144 # 3d090 <_entry_offset+0x3d090>
    80000928:	0005051b          	sext.w	a0,a0
    8000092c:	44d000ef          	jal	ra,80001578 <__divdi3>
    80000930:	0005061b          	sext.w	a2,a0
    80000934:	00040593          	mv	a1,s0
    80000938:	00001517          	auipc	a0,0x1
    8000093c:	1f850513          	addi	a0,a0,504 # 80001b30 <_etext+0x4f8>
    80000940:	1f9000ef          	jal	ra,80001338 <printf>
    80000944:	00001517          	auipc	a0,0x1
    80000948:	20c50513          	addi	a0,a0,524 # 80001b50 <_etext+0x518>
    8000094c:	1ed000ef          	jal	ra,80001338 <printf>
    80000950:	0d813083          	ld	ra,216(sp)
    80000954:	0d013403          	ld	s0,208(sp)
    80000958:	0c813483          	ld	s1,200(sp)
    8000095c:	0c013903          	ld	s2,192(sp)
    80000960:	0b813983          	ld	s3,184(sp)
    80000964:	0b013a03          	ld	s4,176(sp)
    80000968:	0a813a83          	ld	s5,168(sp)
    8000096c:	0a013b03          	ld	s6,160(sp)
    80000970:	09813b83          	ld	s7,152(sp)
    80000974:	09013c03          	ld	s8,144(sp)
    80000978:	08813c83          	ld	s9,136(sp)
    8000097c:	08013d03          	ld	s10,128(sp)
    80000980:	07813d83          	ld	s11,120(sp)
    80000984:	00000513          	li	a0,0
    80000988:	0e010113          	addi	sp,sp,224
    8000098c:	00008067          	ret
    80000990:	00d00793          	li	a5,13
    80000994:	00078c93          	mv	s9,a5
    80000998:	00100a93          	li	s5,1
    8000099c:	00100d93          	li	s11,1
    800009a0:	ab5ff06f          	j	80000454 <main+0x2dc>

00000000800009a4 <__am_timer_config>:
    800009a4:	00100793          	li	a5,1
    800009a8:	00f50023          	sb	a5,0(a0)
    800009ac:	00f500a3          	sb	a5,1(a0)
    800009b0:	00008067          	ret

00000000800009b4 <__am_input_config>:
    800009b4:	00100793          	li	a5,1
    800009b8:	00f50023          	sb	a5,0(a0)
    800009bc:	00008067          	ret

00000000800009c0 <__am_uart_config>:
    800009c0:	00100793          	li	a5,1
    800009c4:	00f50023          	sb	a5,0(a0)
    800009c8:	00008067          	ret

00000000800009cc <__am_net_config>:
    800009cc:	00050023          	sb	zero,0(a0)
    800009d0:	00008067          	ret

00000000800009d4 <fail>:
    800009d4:	ff010113          	addi	sp,sp,-16
    800009d8:	00813023          	sd	s0,0(sp)
    800009dc:	00113423          	sd	ra,8(sp)
    800009e0:	00001417          	auipc	s0,0x1
    800009e4:	1b040413          	addi	s0,s0,432 # 80001b90 <_etext+0x558>
    800009e8:	04100513          	li	a0,65
    800009ec:	00140413          	addi	s0,s0,1
    800009f0:	3c8000ef          	jal	ra,80000db8 <putch>
    800009f4:	00044503          	lbu	a0,0(s0)
    800009f8:	fe051ae3          	bnez	a0,800009ec <fail+0x18>
    800009fc:	00001417          	auipc	s0,0x1
    80000a00:	1a440413          	addi	s0,s0,420 # 80001ba0 <_etext+0x568>
    80000a04:	06100513          	li	a0,97
    80000a08:	00140413          	addi	s0,s0,1
    80000a0c:	3ac000ef          	jal	ra,80000db8 <putch>
    80000a10:	00044503          	lbu	a0,0(s0)
    80000a14:	fe051ae3          	bnez	a0,80000a08 <fail+0x34>
    80000a18:	00001417          	auipc	s0,0x1
    80000a1c:	1a840413          	addi	s0,s0,424 # 80001bc0 <_etext+0x588>
    80000a20:	02000513          	li	a0,32
    80000a24:	00140413          	addi	s0,s0,1
    80000a28:	390000ef          	jal	ra,80000db8 <putch>
    80000a2c:	00044503          	lbu	a0,0(s0)
    80000a30:	fe051ae3          	bnez	a0,80000a24 <fail+0x50>
    80000a34:	00100513          	li	a0,1
    80000a38:	390000ef          	jal	ra,80000dc8 <halt>

0000000080000a3c <ioe_init>:
    80000a3c:	ff010113          	addi	sp,sp,-16
    80000a40:	00113423          	sd	ra,8(sp)
    80000a44:	00001797          	auipc	a5,0x1
    80000a48:	2dc78793          	addi	a5,a5,732 # 80001d20 <lut>
    80000a4c:	00001697          	auipc	a3,0x1
    80000a50:	6d468693          	addi	a3,a3,1748 # 80002120 <h>
    80000a54:	00000617          	auipc	a2,0x0
    80000a58:	f8060613          	addi	a2,a2,-128 # 800009d4 <fail>
    80000a5c:	00c0006f          	j	80000a68 <ioe_init+0x2c>
    80000a60:	00878793          	addi	a5,a5,8
    80000a64:	00d78c63          	beq	a5,a3,80000a7c <ioe_init+0x40>
    80000a68:	0007b703          	ld	a4,0(a5)
    80000a6c:	fe071ae3          	bnez	a4,80000a60 <ioe_init+0x24>
    80000a70:	00c7b023          	sd	a2,0(a5)
    80000a74:	00878793          	addi	a5,a5,8
    80000a78:	fed798e3          	bne	a5,a3,80000a68 <ioe_init+0x2c>
    80000a7c:	030000ef          	jal	ra,80000aac <__am_timer_init>
    80000a80:	00813083          	ld	ra,8(sp)
    80000a84:	00100513          	li	a0,1
    80000a88:	01010113          	addi	sp,sp,16
    80000a8c:	00008067          	ret

0000000080000a90 <ioe_read>:
    80000a90:	00351513          	slli	a0,a0,0x3
    80000a94:	00001797          	auipc	a5,0x1
    80000a98:	28c78793          	addi	a5,a5,652 # 80001d20 <lut>
    80000a9c:	00a787b3          	add	a5,a5,a0
    80000aa0:	0007b783          	ld	a5,0(a5)
    80000aa4:	00058513          	mv	a0,a1
    80000aa8:	00078067          	jr	a5

0000000080000aac <__am_timer_init>:
    80000aac:	00008067          	ret

0000000080000ab0 <__am_timer_uptime>:
    80000ab0:	00053023          	sd	zero,0(a0)
    80000ab4:	00008067          	ret

0000000080000ab8 <__am_timer_rtc>:
    80000ab8:	76c00793          	li	a5,1900
    80000abc:	00052a23          	sw	zero,20(a0)
    80000ac0:	00052823          	sw	zero,16(a0)
    80000ac4:	00052623          	sw	zero,12(a0)
    80000ac8:	00052423          	sw	zero,8(a0)
    80000acc:	00052223          	sw	zero,4(a0)
    80000ad0:	00f52023          	sw	a5,0(a0)
    80000ad4:	00008067          	ret

0000000080000ad8 <__am_input_keybrd>:
    80000ad8:	00500793          	li	a5,5
    80000adc:	01d79793          	slli	a5,a5,0x1d
    80000ae0:	0607a783          	lw	a5,96(a5)
    80000ae4:	ffff86b7          	lui	a3,0xffff8
    80000ae8:	fff68693          	addi	a3,a3,-1 # ffffffffffff7fff <_end+0xffffffff7ffeafff>
    80000aec:	00f7d71b          	srliw	a4,a5,0xf
    80000af0:	00177713          	andi	a4,a4,1
    80000af4:	00d7f7b3          	and	a5,a5,a3
    80000af8:	00e50023          	sb	a4,0(a0)
    80000afc:	00f52223          	sw	a5,4(a0)
    80000b00:	00008067          	ret

0000000080000b04 <__am_gpu_config>:
    80000b04:	00500793          	li	a5,5
    80000b08:	01d79793          	slli	a5,a5,0x1d
    80000b0c:	1007a783          	lw	a5,256(a5)
    80000b10:	ff010113          	addi	sp,sp,-16
    80000b14:	00813023          	sd	s0,0(sp)
    80000b18:	03079593          	slli	a1,a5,0x30
    80000b1c:	0305d593          	srli	a1,a1,0x30
    80000b20:	0107d71b          	srliw	a4,a5,0x10
    80000b24:	00001697          	auipc	a3,0x1
    80000b28:	60e6a023          	sw	a4,1536(a3) # 80002124 <w>
    80000b2c:	00001697          	auipc	a3,0x1
    80000b30:	5eb6aa23          	sw	a1,1524(a3) # 80002120 <h>
    80000b34:	00113423          	sd	ra,8(sp)
    80000b38:	00100693          	li	a3,1
    80000b3c:	00050413          	mv	s0,a0
    80000b40:	00d51023          	sh	a3,0(a0)
    80000b44:	00e52223          	sw	a4,4(a0)
    80000b48:	00b52423          	sw	a1,8(a0)
    80000b4c:	0107d51b          	srliw	a0,a5,0x10
    80000b50:	1c5000ef          	jal	ra,80001514 <__muldi3>
    80000b54:	0025151b          	slliw	a0,a0,0x2
    80000b58:	00813083          	ld	ra,8(sp)
    80000b5c:	00a42623          	sw	a0,12(s0)
    80000b60:	00013403          	ld	s0,0(sp)
    80000b64:	01010113          	addi	sp,sp,16
    80000b68:	00008067          	ret

0000000080000b6c <__am_gpu_fbdraw>:
    80000b6c:	fa010113          	addi	sp,sp,-96
    80000b70:	03613023          	sd	s6,32(sp)
    80000b74:	00853b03          	ld	s6,8(a0)
    80000b78:	04913423          	sd	s1,72(sp)
    80000b7c:	04113c23          	sd	ra,88(sp)
    80000b80:	04813823          	sd	s0,80(sp)
    80000b84:	05213023          	sd	s2,64(sp)
    80000b88:	03313c23          	sd	s3,56(sp)
    80000b8c:	03413823          	sd	s4,48(sp)
    80000b90:	03513423          	sd	s5,40(sp)
    80000b94:	01713c23          	sd	s7,24(sp)
    80000b98:	01813823          	sd	s8,16(sp)
    80000b9c:	01913423          	sd	s9,8(sp)
    80000ba0:	01a13023          	sd	s10,0(sp)
    80000ba4:	00050493          	mv	s1,a0
    80000ba8:	0a0b0263          	beqz	s6,80000c4c <__am_gpu_fbdraw+0xe0>
    80000bac:	01452683          	lw	a3,20(a0)
    80000bb0:	08d05e63          	blez	a3,80000c4c <__am_gpu_fbdraw+0xe0>
    80000bb4:	01052783          	lw	a5,16(a0)
    80000bb8:	00000913          	li	s2,0
    80000bbc:	00000a93          	li	s5,0
    80000bc0:	00001a17          	auipc	s4,0x1
    80000bc4:	564a0a13          	addi	s4,s4,1380 # 80002124 <w>
    80000bc8:	a10009b7          	lui	s3,0xa1000
    80000bcc:	002a9c13          	slli	s8,s5,0x2
    80000bd0:	018b0c33          	add	s8,s6,s8
    80000bd4:	00000b93          	li	s7,0
    80000bd8:	06f05663          	blez	a5,80000c44 <__am_gpu_fbdraw+0xd8>
    80000bdc:	000a2c83          	lw	s9,0(s4)
    80000be0:	0044a583          	lw	a1,4(s1)
    80000be4:	000c2d03          	lw	s10,0(s8)
    80000be8:	000c8513          	mv	a0,s9
    80000bec:	129000ef          	jal	ra,80001514 <__muldi3>
    80000bf0:	0004a403          	lw	s0,0(s1)
    80000bf4:	00050793          	mv	a5,a0
    80000bf8:	00090593          	mv	a1,s2
    80000bfc:	000c8513          	mv	a0,s9
    80000c00:	00f4043b          	addw	s0,s0,a5
    80000c04:	111000ef          	jal	ra,80001514 <__muldi3>
    80000c08:	00a407bb          	addw	a5,s0,a0
    80000c0c:	017787bb          	addw	a5,a5,s7
    80000c10:	0027979b          	slliw	a5,a5,0x2
    80000c14:	013787bb          	addw	a5,a5,s3
    80000c18:	02079793          	slli	a5,a5,0x20
    80000c1c:	0207d793          	srli	a5,a5,0x20
    80000c20:	01a7a023          	sw	s10,0(a5)
    80000c24:	0104a783          	lw	a5,16(s1)
    80000c28:	000b8713          	mv	a4,s7
    80000c2c:	001b8b9b          	addiw	s7,s7,1
    80000c30:	004c0c13          	addi	s8,s8,4
    80000c34:	fafbc4e3          	blt	s7,a5,80000bdc <__am_gpu_fbdraw+0x70>
    80000c38:	0144a683          	lw	a3,20(s1)
    80000c3c:	001a8a9b          	addiw	s5,s5,1
    80000c40:	00ea8abb          	addw	s5,s5,a4
    80000c44:	0019091b          	addiw	s2,s2,1
    80000c48:	f8d942e3          	blt	s2,a3,80000bcc <__am_gpu_fbdraw+0x60>
    80000c4c:	0184c783          	lbu	a5,24(s1)
    80000c50:	00078a63          	beqz	a5,80000c64 <__am_gpu_fbdraw+0xf8>
    80000c54:	00500793          	li	a5,5
    80000c58:	01d79793          	slli	a5,a5,0x1d
    80000c5c:	00100713          	li	a4,1
    80000c60:	10e7a223          	sw	a4,260(a5)
    80000c64:	05813083          	ld	ra,88(sp)
    80000c68:	05013403          	ld	s0,80(sp)
    80000c6c:	04813483          	ld	s1,72(sp)
    80000c70:	04013903          	ld	s2,64(sp)
    80000c74:	03813983          	ld	s3,56(sp)
    80000c78:	03013a03          	ld	s4,48(sp)
    80000c7c:	02813a83          	ld	s5,40(sp)
    80000c80:	02013b03          	ld	s6,32(sp)
    80000c84:	01813b83          	ld	s7,24(sp)
    80000c88:	01013c03          	ld	s8,16(sp)
    80000c8c:	00813c83          	ld	s9,8(sp)
    80000c90:	00013d03          	ld	s10,0(sp)
    80000c94:	06010113          	addi	sp,sp,96
    80000c98:	00008067          	ret

0000000080000c9c <__am_gpu_status>:
    80000c9c:	00100793          	li	a5,1
    80000ca0:	00f50023          	sb	a5,0(a0)
    80000ca4:	00008067          	ret

0000000080000ca8 <__am_audio_config>:
    80000ca8:	00500793          	li	a5,5
    80000cac:	01d79793          	slli	a5,a5,0x1d
    80000cb0:	20c7a783          	lw	a5,524(a5)
    80000cb4:	00100713          	li	a4,1
    80000cb8:	00e50023          	sb	a4,0(a0)
    80000cbc:	0007879b          	sext.w	a5,a5
    80000cc0:	00f52223          	sw	a5,4(a0)
    80000cc4:	00004717          	auipc	a4,0x4
    80000cc8:	06f72a23          	sw	a5,116(a4) # 80004d38 <sbuf_size>
    80000ccc:	00008067          	ret

0000000080000cd0 <__am_audio_ctrl>:
    80000cd0:	00052703          	lw	a4,0(a0)
    80000cd4:	00500793          	li	a5,5
    80000cd8:	01d79793          	slli	a5,a5,0x1d
    80000cdc:	20e7a023          	sw	a4,512(a5)
    80000ce0:	00452703          	lw	a4,4(a0)
    80000ce4:	20e7a223          	sw	a4,516(a5)
    80000ce8:	00852703          	lw	a4,8(a0)
    80000cec:	20e7a423          	sw	a4,520(a5)
    80000cf0:	00100713          	li	a4,1
    80000cf4:	20e7a823          	sw	a4,528(a5)
    80000cf8:	00008067          	ret

0000000080000cfc <__am_audio_status>:
    80000cfc:	00500793          	li	a5,5
    80000d00:	01d79793          	slli	a5,a5,0x1d
    80000d04:	2147a783          	lw	a5,532(a5)
    80000d08:	00f52023          	sw	a5,0(a0)
    80000d0c:	00008067          	ret

0000000080000d10 <__am_audio_play>:
    80000d10:	00053603          	ld	a2,0(a0)
    80000d14:	00853783          	ld	a5,8(a0)
    80000d18:	00004697          	auipc	a3,0x4
    80000d1c:	0206a683          	lw	a3,32(a3) # 80004d38 <sbuf_size>
    80000d20:	00500713          	li	a4,5
    80000d24:	40c787b3          	sub	a5,a5,a2
    80000d28:	0007859b          	sext.w	a1,a5
    80000d2c:	40f686bb          	subw	a3,a3,a5
    80000d30:	01d71713          	slli	a4,a4,0x1d
    80000d34:	21472783          	lw	a5,532(a4)
    80000d38:	fef6eee3          	bltu	a3,a5,80000d34 <__am_audio_play+0x24>
    80000d3c:	21472783          	lw	a5,532(a4)
    80000d40:	0007871b          	sext.w	a4,a5
    80000d44:	00078893          	mv	a7,a5
    80000d48:	04b05663          	blez	a1,80000d94 <__am_audio_play+0x84>
    80000d4c:	a1200837          	lui	a6,0xa1200
    80000d50:	00064683          	lbu	a3,0(a2)
    80000d54:	00e8083b          	addw	a6,a6,a4
    80000d58:	02081793          	slli	a5,a6,0x20
    80000d5c:	0207d793          	srli	a5,a5,0x20
    80000d60:	00d78023          	sb	a3,0(a5)
    80000d64:	00100793          	li	a5,1
    80000d68:	02f58663          	beq	a1,a5,80000d94 <__am_audio_play+0x84>
    80000d6c:	00053683          	ld	a3,0(a0)
    80000d70:	0107873b          	addw	a4,a5,a6
    80000d74:	02071713          	slli	a4,a4,0x20
    80000d78:	00f686b3          	add	a3,a3,a5
    80000d7c:	0006c603          	lbu	a2,0(a3)
    80000d80:	02075713          	srli	a4,a4,0x20
    80000d84:	00178793          	addi	a5,a5,1
    80000d88:	0007869b          	sext.w	a3,a5
    80000d8c:	00c70023          	sb	a2,0(a4)
    80000d90:	fcb6cee3          	blt	a3,a1,80000d6c <__am_audio_play+0x5c>
    80000d94:	00500793          	li	a5,5
    80000d98:	011585bb          	addw	a1,a1,a7
    80000d9c:	01d79793          	slli	a5,a5,0x1d
    80000da0:	20b7aa23          	sw	a1,532(a5)
    80000da4:	00008067          	ret

0000000080000da8 <__am_disk_config>:
    80000da8:	00050023          	sb	zero,0(a0)
    80000dac:	00008067          	ret

0000000080000db0 <__am_disk_status>:
    80000db0:	00008067          	ret

0000000080000db4 <__am_disk_blkio>:
    80000db4:	00008067          	ret

0000000080000db8 <putch>:
    80000db8:	00500793          	li	a5,5
    80000dbc:	01d79793          	slli	a5,a5,0x1d
    80000dc0:	3ea78c23          	sb	a0,1016(a5)
    80000dc4:	00008067          	ret

0000000080000dc8 <halt>:
    80000dc8:	00050513          	mv	a0,a0
    80000dcc:	00100073          	ebreak
    80000dd0:	0000006f          	j	80000dd0 <halt+0x8>

0000000080000dd4 <_trm_init>:
    80000dd4:	ff010113          	addi	sp,sp,-16
    80000dd8:	00001517          	auipc	a0,0x1
    80000ddc:	f2850513          	addi	a0,a0,-216 # 80001d00 <mainargs>
    80000de0:	00113423          	sd	ra,8(sp)
    80000de4:	b94ff0ef          	jal	ra,80000178 <main>
    80000de8:	00050513          	mv	a0,a0
    80000dec:	00100073          	ebreak
    80000df0:	0000006f          	j	80000df0 <_trm_init+0x1c>

0000000080000df4 <vsnprintf>:
    80000df4:	f7010113          	addi	sp,sp,-144
    80000df8:	08113423          	sd	ra,136(sp)
    80000dfc:	08813023          	sd	s0,128(sp)
    80000e00:	06913c23          	sd	s1,120(sp)
    80000e04:	07213823          	sd	s2,112(sp)
    80000e08:	07313423          	sd	s3,104(sp)
    80000e0c:	07413023          	sd	s4,96(sp)
    80000e10:	05513c23          	sd	s5,88(sp)
    80000e14:	05613823          	sd	s6,80(sp)
    80000e18:	05713423          	sd	s7,72(sp)
    80000e1c:	05813023          	sd	s8,64(sp)
    80000e20:	03913c23          	sd	s9,56(sp)
    80000e24:	03a13823          	sd	s10,48(sp)
    80000e28:	03b13423          	sd	s11,40(sp)
    80000e2c:	50060263          	beqz	a2,80001330 <vsnprintf+0x53c>
    80000e30:	00064703          	lbu	a4,0(a2)
    80000e34:	00060493          	mv	s1,a2
    80000e38:	00050993          	mv	s3,a0
    80000e3c:	00058913          	mv	s2,a1
    80000e40:	00000a13          	li	s4,0
    80000e44:	00100413          	li	s0,1
    80000e48:	04070c63          	beqz	a4,80000ea0 <vsnprintf+0xac>
    80000e4c:	00010b93          	mv	s7,sp
    80000e50:	00100c13          	li	s8,1
    80000e54:	00068c93          	mv	s9,a3
    80000e58:	00001a97          	auipc	s5,0x1
    80000e5c:	e4ca8a93          	addi	s5,s5,-436 # 80001ca4 <_etext+0x66c>
    80000e60:	00001b17          	auipc	s6,0x1
    80000e64:	ea8b3b03          	ld	s6,-344(s6) # 80001d08 <mainargs+0x8>
    80000e68:	417c0c3b          	subw	s8,s8,s7
    80000e6c:	00100793          	li	a5,1
    80000e70:	00148613          	addi	a2,s1,1
    80000e74:	0727fa63          	bgeu	a5,s2,80000ee8 <vsnprintf+0xf4>
    80000e78:	02500793          	li	a5,37
    80000e7c:	08f70663          	beq	a4,a5,80000f08 <vsnprintf+0x114>
    80000e80:	001a0a1b          	addiw	s4,s4,1
    80000e84:	3e040263          	beqz	s0,80001268 <vsnprintf+0x474>
    80000e88:	00e98023          	sb	a4,0(s3) # ffffffffa1000000 <_end+0xffffffff20ff3000>
    80000e8c:	0014c703          	lbu	a4,1(s1)
    80000e90:	fff90913          	addi	s2,s2,-1
    80000e94:	00060493          	mv	s1,a2
    80000e98:	00198993          	addi	s3,s3,1
    80000e9c:	fc0718e3          	bnez	a4,80000e6c <vsnprintf+0x78>
    80000ea0:	00090463          	beqz	s2,80000ea8 <vsnprintf+0xb4>
    80000ea4:	00098023          	sb	zero,0(s3)
    80000ea8:	08813083          	ld	ra,136(sp)
    80000eac:	08013403          	ld	s0,128(sp)
    80000eb0:	07813483          	ld	s1,120(sp)
    80000eb4:	07013903          	ld	s2,112(sp)
    80000eb8:	06813983          	ld	s3,104(sp)
    80000ebc:	05813a83          	ld	s5,88(sp)
    80000ec0:	05013b03          	ld	s6,80(sp)
    80000ec4:	04813b83          	ld	s7,72(sp)
    80000ec8:	04013c03          	ld	s8,64(sp)
    80000ecc:	03813c83          	ld	s9,56(sp)
    80000ed0:	03013d03          	ld	s10,48(sp)
    80000ed4:	02813d83          	ld	s11,40(sp)
    80000ed8:	000a0513          	mv	a0,s4
    80000edc:	06013a03          	ld	s4,96(sp)
    80000ee0:	09010113          	addi	sp,sp,144
    80000ee4:	00008067          	ret
    80000ee8:	02500793          	li	a5,37
    80000eec:	34f70e63          	beq	a4,a5,80001248 <vsnprintf+0x454>
    80000ef0:	0014c703          	lbu	a4,1(s1)
    80000ef4:	001a0a1b          	addiw	s4,s4,1
    80000ef8:	00060493          	mv	s1,a2
    80000efc:	00000413          	li	s0,0
    80000f00:	f60716e3          	bnez	a4,80000e6c <vsnprintf+0x78>
    80000f04:	f9dff06f          	j	80000ea0 <vsnprintf+0xac>
    80000f08:	0014c783          	lbu	a5,1(s1)
    80000f0c:	f8078ce3          	beqz	a5,80000ea4 <vsnprintf+0xb0>
    80000f10:	36e78463          	beq	a5,a4,80001278 <vsnprintf+0x484>
    80000f14:	f9d7879b          	addiw	a5,a5,-99
    80000f18:	0ff7f793          	zext.b	a5,a5
    80000f1c:	01500713          	li	a4,21
    80000f20:	06f76663          	bltu	a4,a5,80000f8c <vsnprintf+0x198>
    80000f24:	00279793          	slli	a5,a5,0x2
    80000f28:	015787b3          	add	a5,a5,s5
    80000f2c:	0007a783          	lw	a5,0(a5)
    80000f30:	015787b3          	add	a5,a5,s5
    80000f34:	00078067          	jr	a5
    80000f38:	00bc073b          	addw	a4,s8,a1
    80000f3c:	02070693          	addi	a3,a4,32
    80000f40:	002686b3          	add	a3,a3,sp
    80000f44:	0308889b          	addiw	a7,a7,48
    80000f48:	ff168023          	sb	a7,-32(a3)
    80000f4c:	0017079b          	addiw	a5,a4,1
    80000f50:	01900693          	li	a3,25
    80000f54:	3cd78663          	beq	a5,a3,80001320 <vsnprintf+0x52c>
    80000f58:	00fa0a3b          	addw	s4,s4,a5
    80000f5c:	00e607b3          	add	a5,a2,a4
    80000f60:	fff10713          	addi	a4,sp,-1
    80000f64:	02040063          	beqz	s0,80000f84 <vsnprintf+0x190>
    80000f68:	0007c683          	lbu	a3,0(a5)
    80000f6c:	fff90913          	addi	s2,s2,-1
    80000f70:	00293413          	sltiu	s0,s2,2
    80000f74:	00144413          	xori	s0,s0,1
    80000f78:	00d98023          	sb	a3,0(s3)
    80000f7c:	0ff47413          	zext.b	s0,s0
    80000f80:	00198993          	addi	s3,s3,1
    80000f84:	fff78793          	addi	a5,a5,-1
    80000f88:	fce79ee3          	bne	a5,a4,80000f64 <vsnprintf+0x170>
    80000f8c:	0024c703          	lbu	a4,2(s1)
    80000f90:	00248493          	addi	s1,s1,2
    80000f94:	ec071ce3          	bnez	a4,80000e6c <vsnprintf+0x78>
    80000f98:	f09ff06f          	j	80000ea0 <vsnprintf+0xac>
    80000f9c:	000cb303          	ld	t1,0(s9)
    80000fa0:	00013023          	sd	zero,0(sp)
    80000fa4:	008c8c93          	addi	s9,s9,8
    80000fa8:	00013423          	sd	zero,8(sp)
    80000fac:	00011823          	sh	zero,16(sp)
    80000fb0:	00010923          	sb	zero,18(sp)
    80000fb4:	000b8693          	mv	a3,s7
    80000fb8:	000b8813          	mv	a6,s7
    80000fbc:	00001517          	auipc	a0,0x1
    80000fc0:	c5c50513          	addi	a0,a0,-932 # 80001c18 <_etext+0x5e0>
    80000fc4:	00000593          	li	a1,0
    80000fc8:	06c00613          	li	a2,108
    80000fcc:	03c00893          	li	a7,60
    80000fd0:	00001e17          	auipc	t3,0x1
    80000fd4:	cc0e0e13          	addi	t3,t3,-832 # 80001c90 <_etext+0x658>
    80000fd8:	0080006f          	j	80000fe0 <vsnprintf+0x1ec>
    80000fdc:	00078593          	mv	a1,a5
    80000fe0:	fd06071b          	addiw	a4,a2,-48
    80000fe4:	0ff77793          	zext.b	a5,a4
    80000fe8:	02f8e063          	bltu	a7,a5,80001008 <vsnprintf+0x214>
    80000fec:	00fb57b3          	srl	a5,s6,a5
    80000ff0:	0017f793          	andi	a5,a5,1
    80000ff4:	00078a63          	beqz	a5,80001008 <vsnprintf+0x214>
    80000ff8:	00e357b3          	srl	a5,t1,a4
    80000ffc:	00f7f793          	andi	a5,a5,15
    80001000:	00fe07b3          	add	a5,t3,a5
    80001004:	0007c603          	lbu	a2,0(a5)
    80001008:	00150513          	addi	a0,a0,1
    8000100c:	00c80023          	sb	a2,0(a6) # ffffffffa1200000 <_end+0xffffffff211f3000>
    80001010:	00054603          	lbu	a2,0(a0)
    80001014:	0015879b          	addiw	a5,a1,1
    80001018:	00078713          	mv	a4,a5
    8000101c:	00180813          	addi	a6,a6,1
    80001020:	fa061ee3          	bnez	a2,80000fdc <vsnprintf+0x1e8>
    80001024:	01300613          	li	a2,19
    80001028:	2cc78c63          	beq	a5,a2,80001300 <vsnprintf+0x50c>
    8000102c:	001b8793          	addi	a5,s7,1
    80001030:	01470a3b          	addw	s4,a4,s4
    80001034:	00b785b3          	add	a1,a5,a1
    80001038:	02040063          	beqz	s0,80001058 <vsnprintf+0x264>
    8000103c:	0006c703          	lbu	a4,0(a3)
    80001040:	fff90913          	addi	s2,s2,-1
    80001044:	00293413          	sltiu	s0,s2,2
    80001048:	00144413          	xori	s0,s0,1
    8000104c:	00e98023          	sb	a4,0(s3)
    80001050:	0ff47413          	zext.b	s0,s0
    80001054:	00198993          	addi	s3,s3,1
    80001058:	00078693          	mv	a3,a5
    8000105c:	f2f588e3          	beq	a1,a5,80000f8c <vsnprintf+0x198>
    80001060:	00178793          	addi	a5,a5,1
    80001064:	fd5ff06f          	j	80001038 <vsnprintf+0x244>
    80001068:	000cbd03          	ld	s10,0(s9)
    8000106c:	008c8d93          	addi	s11,s9,8
    80001070:	000d8c93          	mv	s9,s11
    80001074:	f00d0ce3          	beqz	s10,80000f8c <vsnprintf+0x198>
    80001078:	000d0513          	mv	a0,s10
    8000107c:	3cc000ef          	jal	ra,80001448 <strlen>
    80001080:	0005071b          	sext.w	a4,a0
    80001084:	01450a3b          	addw	s4,a0,s4
    80001088:	f0e052e3          	blez	a4,80000f8c <vsnprintf+0x198>
    8000108c:	00000793          	li	a5,0
    80001090:	02040263          	beqz	s0,800010b4 <vsnprintf+0x2c0>
    80001094:	000d4683          	lbu	a3,0(s10)
    80001098:	fff90913          	addi	s2,s2,-1
    8000109c:	00293413          	sltiu	s0,s2,2
    800010a0:	00144413          	xori	s0,s0,1
    800010a4:	00d98023          	sb	a3,0(s3)
    800010a8:	0ff47413          	zext.b	s0,s0
    800010ac:	001d0d13          	addi	s10,s10,1
    800010b0:	00198993          	addi	s3,s3,1
    800010b4:	0017879b          	addiw	a5,a5,1
    800010b8:	fcf71ce3          	bne	a4,a5,80001090 <vsnprintf+0x29c>
    800010bc:	0024c703          	lbu	a4,2(s1)
    800010c0:	000d8c93          	mv	s9,s11
    800010c4:	00248493          	addi	s1,s1,2
    800010c8:	ecdff06f          	j	80000f94 <vsnprintf+0x1a0>
    800010cc:	000067b7          	lui	a5,0x6
    800010d0:	00013023          	sd	zero,0(sp)
    800010d4:	83078793          	addi	a5,a5,-2000 # 5830 <_entry_offset+0x5830>
    800010d8:	000cb303          	ld	t1,0(s9)
    800010dc:	00013423          	sd	zero,8(sp)
    800010e0:	008c8c93          	addi	s9,s9,8
    800010e4:	00011823          	sh	zero,16(sp)
    800010e8:	00010923          	sb	zero,18(sp)
    800010ec:	00f11023          	sh	a5,0(sp)
    800010f0:	00210513          	addi	a0,sp,2
    800010f4:	00001597          	auipc	a1,0x1
    800010f8:	b2458593          	addi	a1,a1,-1244 # 80001c18 <_etext+0x5e0>
    800010fc:	00200813          	li	a6,2
    80001100:	06c00613          	li	a2,108
    80001104:	03c00693          	li	a3,60
    80001108:	00001897          	auipc	a7,0x1
    8000110c:	b8888893          	addi	a7,a7,-1144 # 80001c90 <_etext+0x658>
    80001110:	0080006f          	j	80001118 <vsnprintf+0x324>
    80001114:	00070813          	mv	a6,a4
    80001118:	fd06071b          	addiw	a4,a2,-48
    8000111c:	0ff77793          	zext.b	a5,a4
    80001120:	02f6e063          	bltu	a3,a5,80001140 <vsnprintf+0x34c>
    80001124:	00fb57b3          	srl	a5,s6,a5
    80001128:	0017f793          	andi	a5,a5,1
    8000112c:	00078a63          	beqz	a5,80001140 <vsnprintf+0x34c>
    80001130:	00e357b3          	srl	a5,t1,a4
    80001134:	00f7f793          	andi	a5,a5,15
    80001138:	00f887b3          	add	a5,a7,a5
    8000113c:	0007c603          	lbu	a2,0(a5)
    80001140:	00158593          	addi	a1,a1,1
    80001144:	00c50023          	sb	a2,0(a0)
    80001148:	0005c603          	lbu	a2,0(a1)
    8000114c:	0018071b          	addiw	a4,a6,1
    80001150:	00150513          	addi	a0,a0,1
    80001154:	fc0610e3          	bnez	a2,80001114 <vsnprintf+0x320>
    80001158:	01300693          	li	a3,19
    8000115c:	1cd70663          	beq	a4,a3,80001328 <vsnprintf+0x534>
    80001160:	01470a3b          	addw	s4,a4,s4
    80001164:	00110713          	addi	a4,sp,1
    80001168:	00010793          	mv	a5,sp
    8000116c:	01070733          	add	a4,a4,a6
    80001170:	02040063          	beqz	s0,80001190 <vsnprintf+0x39c>
    80001174:	0007c683          	lbu	a3,0(a5)
    80001178:	fff90913          	addi	s2,s2,-1
    8000117c:	00293413          	sltiu	s0,s2,2
    80001180:	00144413          	xori	s0,s0,1
    80001184:	00d98023          	sb	a3,0(s3)
    80001188:	0ff47413          	zext.b	s0,s0
    8000118c:	00198993          	addi	s3,s3,1
    80001190:	00178793          	addi	a5,a5,1
    80001194:	fce79ee3          	bne	a5,a4,80001170 <vsnprintf+0x37c>
    80001198:	0024c703          	lbu	a4,2(s1)
    8000119c:	00248493          	addi	s1,s1,2
    800011a0:	df5ff06f          	j	80000f94 <vsnprintf+0x1a0>
    800011a4:	000ca803          	lw	a6,0(s9)
    800011a8:	008c8c93          	addi	s9,s9,8
    800011ac:	0e084e63          	bltz	a6,800012a8 <vsnprintf+0x4b4>
    800011b0:	00013023          	sd	zero,0(sp)
    800011b4:	00013423          	sd	zero,8(sp)
    800011b8:	00013823          	sd	zero,16(sp)
    800011bc:	00010c23          	sb	zero,24(sp)
    800011c0:	00900793          	li	a5,9
    800011c4:	1307d263          	bge	a5,a6,800012e8 <vsnprintf+0x4f4>
    800011c8:	000b8613          	mv	a2,s7
    800011cc:	000b8593          	mv	a1,s7
    800011d0:	00900693          	li	a3,9
    800011d4:	00a00793          	li	a5,10
    800011d8:	00078713          	mv	a4,a5
    800011dc:	00a7879b          	addiw	a5,a5,10
    800011e0:	fef85ce3          	bge	a6,a5,800011d8 <vsnprintf+0x3e4>
    800011e4:	40e8073b          	subw	a4,a6,a4
    800011e8:	0307071b          	addiw	a4,a4,48
    800011ec:	00e58023          	sb	a4,0(a1)
    800011f0:	00a00793          	li	a5,10
    800011f4:	00000713          	li	a4,0
    800011f8:	0017071b          	addiw	a4,a4,1
    800011fc:	00a7879b          	addiw	a5,a5,10
    80001200:	00070893          	mv	a7,a4
    80001204:	fef85ae3          	bge	a6,a5,800011f8 <vsnprintf+0x404>
    80001208:	00158793          	addi	a5,a1,1
    8000120c:	d2e6d6e3          	bge	a3,a4,80000f38 <vsnprintf+0x144>
    80001210:	00078593          	mv	a1,a5
    80001214:	00070813          	mv	a6,a4
    80001218:	fbdff06f          	j	800011d4 <vsnprintf+0x3e0>
    8000121c:	001a0a1b          	addiw	s4,s4,1
    80001220:	008c8793          	addi	a5,s9,8
    80001224:	06040a63          	beqz	s0,80001298 <vsnprintf+0x4a4>
    80001228:	000ca703          	lw	a4,0(s9)
    8000122c:	fff90913          	addi	s2,s2,-1
    80001230:	00078c93          	mv	s9,a5
    80001234:	00e98023          	sb	a4,0(s3)
    80001238:	0024c703          	lbu	a4,2(s1)
    8000123c:	00198993          	addi	s3,s3,1
    80001240:	00248493          	addi	s1,s1,2
    80001244:	d51ff06f          	j	80000f94 <vsnprintf+0x1a0>
    80001248:	0014c783          	lbu	a5,1(s1)
    8000124c:	c4078ae3          	beqz	a5,80000ea0 <vsnprintf+0xac>
    80001250:	00000413          	li	s0,0
    80001254:	cce790e3          	bne	a5,a4,80000f14 <vsnprintf+0x120>
    80001258:	0024c703          	lbu	a4,2(s1)
    8000125c:	001a0a1b          	addiw	s4,s4,1
    80001260:	00248493          	addi	s1,s1,2
    80001264:	d31ff06f          	j	80000f94 <vsnprintf+0x1a0>
    80001268:	0014c703          	lbu	a4,1(s1)
    8000126c:	00060493          	mv	s1,a2
    80001270:	be071ee3          	bnez	a4,80000e6c <vsnprintf+0x78>
    80001274:	c2dff06f          	j	80000ea0 <vsnprintf+0xac>
    80001278:	001a0a1b          	addiw	s4,s4,1
    8000127c:	d00408e3          	beqz	s0,80000f8c <vsnprintf+0x198>
    80001280:	00e98023          	sb	a4,0(s3)
    80001284:	0024c703          	lbu	a4,2(s1)
    80001288:	fff90913          	addi	s2,s2,-1
    8000128c:	00198993          	addi	s3,s3,1
    80001290:	00248493          	addi	s1,s1,2
    80001294:	d01ff06f          	j	80000f94 <vsnprintf+0x1a0>
    80001298:	0024c703          	lbu	a4,2(s1)
    8000129c:	00078c93          	mv	s9,a5
    800012a0:	00248493          	addi	s1,s1,2
    800012a4:	cf1ff06f          	j	80000f94 <vsnprintf+0x1a0>
    800012a8:	001a0a1b          	addiw	s4,s4,1
    800012ac:	02040063          	beqz	s0,800012cc <vsnprintf+0x4d8>
    800012b0:	fff90913          	addi	s2,s2,-1
    800012b4:	00293413          	sltiu	s0,s2,2
    800012b8:	00144413          	xori	s0,s0,1
    800012bc:	02d00793          	li	a5,45
    800012c0:	00f98023          	sb	a5,0(s3)
    800012c4:	0ff47413          	zext.b	s0,s0
    800012c8:	00198993          	addi	s3,s3,1
    800012cc:	4100083b          	negw	a6,a6
    800012d0:	00013023          	sd	zero,0(sp)
    800012d4:	00013423          	sd	zero,8(sp)
    800012d8:	00013823          	sd	zero,16(sp)
    800012dc:	00010c23          	sb	zero,24(sp)
    800012e0:	00900793          	li	a5,9
    800012e4:	ef07c2e3          	blt	a5,a6,800011c8 <vsnprintf+0x3d4>
    800012e8:	0308081b          	addiw	a6,a6,48
    800012ec:	01010023          	sb	a6,0(sp)
    800012f0:	00100793          	li	a5,1
    800012f4:	00000713          	li	a4,0
    800012f8:	00010613          	mv	a2,sp
    800012fc:	c5dff06f          	j	80000f58 <vsnprintf+0x164>
    80001300:	17000613          	li	a2,368
    80001304:	00001597          	auipc	a1,0x1
    80001308:	92c58593          	addi	a1,a1,-1748 # 80001c30 <_etext+0x5f8>
    8000130c:	00001517          	auipc	a0,0x1
    80001310:	96450513          	addi	a0,a0,-1692 # 80001c70 <_etext+0x638>
    80001314:	024000ef          	jal	ra,80001338 <printf>
    80001318:	00100513          	li	a0,1
    8000131c:	aadff0ef          	jal	ra,80000dc8 <halt>
    80001320:	14100613          	li	a2,321
    80001324:	fe1ff06f          	j	80001304 <vsnprintf+0x510>
    80001328:	1a200613          	li	a2,418
    8000132c:	fd9ff06f          	j	80001304 <vsnprintf+0x510>
    80001330:	0e400613          	li	a2,228
    80001334:	fd1ff06f          	j	80001304 <vsnprintf+0x510>

0000000080001338 <printf>:
    80001338:	81010113          	addi	sp,sp,-2032
    8000133c:	78913c23          	sd	s1,1944(sp)
    80001340:	7a113423          	sd	ra,1960(sp)
    80001344:	7a813023          	sd	s0,1952(sp)
    80001348:	00001eb7          	lui	t4,0x1
    8000134c:	f7010113          	addi	sp,sp,-144
    80001350:	01010f13          	addi	t5,sp,16
    80001354:	838e8e13          	addi	t3,t4,-1992 # 838 <_entry_offset+0x838>
    80001358:	01ee0e33          	add	t3,t3,t5
    8000135c:	00be3023          	sd	a1,0(t3)
    80001360:	840e8593          	addi	a1,t4,-1984
    80001364:	01e585b3          	add	a1,a1,t5
    80001368:	00c5b023          	sd	a2,0(a1)
    8000136c:	848e8613          	addi	a2,t4,-1976
    80001370:	01010f93          	addi	t6,sp,16
    80001374:	01e60633          	add	a2,a2,t5
    80001378:	850e8f13          	addi	t5,t4,-1968
    8000137c:	00d63023          	sd	a3,0(a2)
    80001380:	01ff0f33          	add	t5,t5,t6
    80001384:	00ef3023          	sd	a4,0(t5)
    80001388:	858e8713          	addi	a4,t4,-1960
    8000138c:	01f70733          	add	a4,a4,t6
    80001390:	00f73023          	sd	a5,0(a4)
    80001394:	860e8713          	addi	a4,t4,-1952
    80001398:	01f70733          	add	a4,a4,t6
    8000139c:	01073023          	sd	a6,0(a4)
    800013a0:	fffffe37          	lui	t3,0xfffff
    800013a4:	868e8713          	addi	a4,t4,-1944
    800013a8:	810e8793          	addi	a5,t4,-2032
    800013ac:	848e8313          	addi	t1,t4,-1976
    800013b0:	01f70733          	add	a4,a4,t6
    800013b4:	01c787b3          	add	a5,a5,t3
    800013b8:	00230333          	add	t1,t1,sp
    800013bc:	01173023          	sd	a7,0(a4)
    800013c0:	01f787b3          	add	a5,a5,t6
    800013c4:	000015b7          	lui	a1,0x1
    800013c8:	00050613          	mv	a2,a0
    800013cc:	00030693          	mv	a3,t1
    800013d0:	80058593          	addi	a1,a1,-2048 # 800 <_entry_offset+0x800>
    800013d4:	02010513          	addi	a0,sp,32
    800013d8:	7e67bc23          	sd	t1,2040(a5)
    800013dc:	00f13423          	sd	a5,8(sp)
    800013e0:	a15ff0ef          	jal	ra,80000df4 <vsnprintf>
    800013e4:	00050493          	mv	s1,a0
    800013e8:	02014503          	lbu	a0,32(sp)
    800013ec:	00050c63          	beqz	a0,80001404 <printf+0xcc>
    800013f0:	02010413          	addi	s0,sp,32
    800013f4:	00140413          	addi	s0,s0,1
    800013f8:	9c1ff0ef          	jal	ra,80000db8 <putch>
    800013fc:	00044503          	lbu	a0,0(s0)
    80001400:	fe051ae3          	bnez	a0,800013f4 <printf+0xbc>
    80001404:	7ff00793          	li	a5,2047
    80001408:	0297c063          	blt	a5,s1,80001428 <printf+0xf0>
    8000140c:	09010113          	addi	sp,sp,144
    80001410:	7a813083          	ld	ra,1960(sp)
    80001414:	00048513          	mv	a0,s1
    80001418:	7a013403          	ld	s0,1952(sp)
    8000141c:	79813483          	ld	s1,1944(sp)
    80001420:	7f010113          	addi	sp,sp,2032
    80001424:	00008067          	ret
    80001428:	02400613          	li	a2,36
    8000142c:	00001597          	auipc	a1,0x1
    80001430:	80458593          	addi	a1,a1,-2044 # 80001c30 <_etext+0x5f8>
    80001434:	00001517          	auipc	a0,0x1
    80001438:	83c50513          	addi	a0,a0,-1988 # 80001c70 <_etext+0x638>
    8000143c:	efdff0ef          	jal	ra,80001338 <printf>
    80001440:	00100513          	li	a0,1
    80001444:	985ff0ef          	jal	ra,80000dc8 <halt>

0000000080001448 <strlen>:
    80001448:	00054783          	lbu	a5,0(a0)
    8000144c:	00050713          	mv	a4,a0
    80001450:	00000513          	li	a0,0
    80001454:	00078c63          	beqz	a5,8000146c <strlen+0x24>
    80001458:	00150513          	addi	a0,a0,1
    8000145c:	00a707b3          	add	a5,a4,a0
    80001460:	0007c783          	lbu	a5,0(a5)
    80001464:	fe079ae3          	bnez	a5,80001458 <strlen+0x10>
    80001468:	00008067          	ret
    8000146c:	00008067          	ret

0000000080001470 <strcpy>:
    80001470:	0005c703          	lbu	a4,0(a1)
    80001474:	02070663          	beqz	a4,800014a0 <strcpy+0x30>
    80001478:	00000793          	li	a5,0
    8000147c:	00f506b3          	add	a3,a0,a5
    80001480:	00178793          	addi	a5,a5,1
    80001484:	00e68023          	sb	a4,0(a3)
    80001488:	00f58733          	add	a4,a1,a5
    8000148c:	00074703          	lbu	a4,0(a4)
    80001490:	fe0716e3          	bnez	a4,8000147c <strcpy+0xc>
    80001494:	00f507b3          	add	a5,a0,a5
    80001498:	00078023          	sb	zero,0(a5)
    8000149c:	00008067          	ret
    800014a0:	00050793          	mv	a5,a0
    800014a4:	00078023          	sb	zero,0(a5)
    800014a8:	00008067          	ret

00000000800014ac <strcmp>:
    800014ac:	00054783          	lbu	a5,0(a0)
    800014b0:	00079c63          	bnez	a5,800014c8 <strcmp+0x1c>
    800014b4:	0500006f          	j	80001504 <strcmp+0x58>
    800014b8:	02f71463          	bne	a4,a5,800014e0 <strcmp+0x34>
    800014bc:	00054783          	lbu	a5,0(a0)
    800014c0:	02078a63          	beqz	a5,800014f4 <strcmp+0x48>
    800014c4:	00068593          	mv	a1,a3
    800014c8:	0005c703          	lbu	a4,0(a1)
    800014cc:	00150513          	addi	a0,a0,1
    800014d0:	00158693          	addi	a3,a1,1
    800014d4:	fe0712e3          	bnez	a4,800014b8 <strcmp+0xc>
    800014d8:	00100513          	li	a0,1
    800014dc:	00008067          	ret
    800014e0:	40e7853b          	subw	a0,a5,a4
    800014e4:	00e78663          	beq	a5,a4,800014f0 <strcmp+0x44>
    800014e8:	fea048e3          	bgtz	a0,800014d8 <strcmp+0x2c>
    800014ec:	fff00513          	li	a0,-1
    800014f0:	00008067          	ret
    800014f4:	0015c503          	lbu	a0,1(a1)
    800014f8:	00a03533          	snez	a0,a0
    800014fc:	40a00533          	neg	a0,a0
    80001500:	00008067          	ret
    80001504:	0005c503          	lbu	a0,0(a1)
    80001508:	00a03533          	snez	a0,a0
    8000150c:	40a00533          	neg	a0,a0
    80001510:	00008067          	ret

0000000080001514 <__muldi3>:
    80001514:	00050613          	mv	a2,a0
    80001518:	00000513          	li	a0,0
    8000151c:	0015f693          	andi	a3,a1,1
    80001520:	00068463          	beqz	a3,80001528 <__muldi3+0x14>
    80001524:	00c50533          	add	a0,a0,a2
    80001528:	0015d593          	srli	a1,a1,0x1
    8000152c:	00161613          	slli	a2,a2,0x1
    80001530:	fe0596e3          	bnez	a1,8000151c <__muldi3+0x8>
    80001534:	00008067          	ret

0000000080001538 <__udivsi3>:
    80001538:	02051513          	slli	a0,a0,0x20
    8000153c:	02059593          	slli	a1,a1,0x20
    80001540:	00008293          	mv	t0,ra
    80001544:	03c000ef          	jal	ra,80001580 <__hidden___udivdi3>
    80001548:	0005051b          	sext.w	a0,a0
    8000154c:	00028067          	jr	t0

0000000080001550 <__umodsi3>:
    80001550:	02051513          	slli	a0,a0,0x20
    80001554:	02059593          	slli	a1,a1,0x20
    80001558:	02055513          	srli	a0,a0,0x20
    8000155c:	0205d593          	srli	a1,a1,0x20
    80001560:	00008293          	mv	t0,ra
    80001564:	01c000ef          	jal	ra,80001580 <__hidden___udivdi3>
    80001568:	0005851b          	sext.w	a0,a1
    8000156c:	00028067          	jr	t0

0000000080001570 <__divsi3>:
    80001570:	fff00293          	li	t0,-1
    80001574:	0a558c63          	beq	a1,t0,8000162c <__moddi3+0x30>

0000000080001578 <__divdi3>:
    80001578:	06054063          	bltz	a0,800015d8 <__umoddi3+0x10>
    8000157c:	0605c663          	bltz	a1,800015e8 <__umoddi3+0x20>

0000000080001580 <__hidden___udivdi3>:
    80001580:	00058613          	mv	a2,a1
    80001584:	00050593          	mv	a1,a0
    80001588:	fff00513          	li	a0,-1
    8000158c:	02060c63          	beqz	a2,800015c4 <__hidden___udivdi3+0x44>
    80001590:	00100693          	li	a3,1
    80001594:	00b67a63          	bgeu	a2,a1,800015a8 <__hidden___udivdi3+0x28>
    80001598:	00c05863          	blez	a2,800015a8 <__hidden___udivdi3+0x28>
    8000159c:	00161613          	slli	a2,a2,0x1
    800015a0:	00169693          	slli	a3,a3,0x1
    800015a4:	feb66ae3          	bltu	a2,a1,80001598 <__hidden___udivdi3+0x18>
    800015a8:	00000513          	li	a0,0
    800015ac:	00c5e663          	bltu	a1,a2,800015b8 <__hidden___udivdi3+0x38>
    800015b0:	40c585b3          	sub	a1,a1,a2
    800015b4:	00d56533          	or	a0,a0,a3
    800015b8:	0016d693          	srli	a3,a3,0x1
    800015bc:	00165613          	srli	a2,a2,0x1
    800015c0:	fe0696e3          	bnez	a3,800015ac <__hidden___udivdi3+0x2c>
    800015c4:	00008067          	ret

00000000800015c8 <__umoddi3>:
    800015c8:	00008293          	mv	t0,ra
    800015cc:	fb5ff0ef          	jal	ra,80001580 <__hidden___udivdi3>
    800015d0:	00058513          	mv	a0,a1
    800015d4:	00028067          	jr	t0
    800015d8:	40a00533          	neg	a0,a0
    800015dc:	00b04863          	bgtz	a1,800015ec <__umoddi3+0x24>
    800015e0:	40b005b3          	neg	a1,a1
    800015e4:	f9dff06f          	j	80001580 <__hidden___udivdi3>
    800015e8:	40b005b3          	neg	a1,a1
    800015ec:	00008293          	mv	t0,ra
    800015f0:	f91ff0ef          	jal	ra,80001580 <__hidden___udivdi3>
    800015f4:	40a00533          	neg	a0,a0
    800015f8:	00028067          	jr	t0

00000000800015fc <__moddi3>:
    800015fc:	00008293          	mv	t0,ra
    80001600:	0005ca63          	bltz	a1,80001614 <__moddi3+0x18>
    80001604:	00054c63          	bltz	a0,8000161c <__moddi3+0x20>
    80001608:	f79ff0ef          	jal	ra,80001580 <__hidden___udivdi3>
    8000160c:	00058513          	mv	a0,a1
    80001610:	00028067          	jr	t0
    80001614:	40b005b3          	neg	a1,a1
    80001618:	fe0558e3          	bgez	a0,80001608 <__moddi3+0xc>
    8000161c:	40a00533          	neg	a0,a0
    80001620:	f61ff0ef          	jal	ra,80001580 <__hidden___udivdi3>
    80001624:	40b00533          	neg	a0,a1
    80001628:	00028067          	jr	t0
    8000162c:	01f29293          	slli	t0,t0,0x1f
    80001630:	f45514e3          	bne	a0,t0,80001578 <__divdi3>
    80001634:	00008067          	ret
